


ARM Macro Assembler    Page 1 


    1 00000000         ;******************** (C) COPYRIGHT 2009  STMicroelectro
                       nics ********************
    2 00000000         ;* File Name          : cr4_fft_1024_stm32.s
    3 00000000         ;* Author             : MCD Application Team
    4 00000000         ;* Version            : V2.0.0
    5 00000000         ;* Date               : 04/27/2009
    6 00000000         ;* Description        : Optimized 1024-point radix-4 com
                       plex FFT for Cortex-M3
    7 00000000         ;*******************************************************
                       *************************
    8 00000000         ;* THE PRESENT FIRMWARE WHICH IS FOR GUIDANCE ONLY AIMS 
                       AT PROVIDING CUSTOMERS
    9 00000000         ;* WITH CODING INFORMATION REGARDING THEIR PRODUCTS IN O
                       RDER FOR THEM TO SAVE TIME.
   10 00000000         ;* AS A RESULT, STMICROELECTRONICS SHALL NOT BE HELD LIA
                       BLE FOR ANY DIRECT,
   11 00000000         ;* INDIRECT OR CONSEQUENTIAL DAMAGES WITH RESPECT TO ANY
                        CLAIMS ARISING FROM THE
   12 00000000         ;* CONTENT OF SUCH SOFTWARE AND/OR THE USE MADE BY CUSTO
                       MERS OF THE CODING
   13 00000000         ;* INFORMATION CONTAINED HEREIN IN CONNECTION WITH THEIR
                        PRODUCTS.
   14 00000000         ;*******************************************************
                       ************************/
   15 00000000         
   16 00000000                 THUMB
   17 00000000                 REQUIRE8
   18 00000000                 PRESERVE8
   19 00000000         
   20 00000000                 AREA             |.text|, CODE, READONLY, ALIGN=
2
   21 00000000         
   22 00000000                 EXPORT           cr4_fft_4096_stm32
   23 00000000                 EXTERN           TableFFT
   24 00000000         
   25 00000000         
   26 00000000        0 
                       pssK    RN               R0
   27 00000000        0 
                       pssOUT  RN               R0
   28 00000000        1 
                       pssX    RN               R1
   29 00000000        1 
                       pssIN   RN               R1
   30 00000000        2 
                       butternbr
                               RN               R2
   31 00000000        2 
                       Nbin    RN               R2
   32 00000000        3 
                       index   RN               R3
   33 00000000        4 
                       Ar      RN               R4
   34 00000000        5 
                       Ai      RN               R5
   35 00000000        6 
                       Br      RN               R6
   36 00000000        7 
                       Bi      RN               R7



ARM Macro Assembler    Page 2 


   37 00000000        8 
                       Cr      RN               R8
   38 00000000        9 
                       Ci      RN               R9
   39 00000000        A 
                       Dr      RN               R10
   40 00000000        B 
                       Di      RN               R11
   41 00000000        C 
                       cntrbitrev
                               RN               R12
   42 00000000        C 
                       tmp     RN               R12
   43 00000000        E 
                       pssIN2  RN               R14
   44 00000000        E 
                       tmp2    RN               R14
   45 00000000         
   46 00000000 00001000 
                       NPT     EQU              4096
   47 00000000         
   48 00000000         ;----------------------------- MACROS ------------------
                       ----------------------
   49 00000000         
   50 00000000                 MACRO
   51 00000000                 DEC              $reg
   52 00000000                 SUB              $reg,$reg,#1
   53 00000000                 MEND
   54 00000000         
   55 00000000                 MACRO
   56 00000000                 INC              $reg
   57 00000000                 ADD              $reg,$reg,#1
   58 00000000                 MEND
   59 00000000         
   60 00000000         
   61 00000000                 MACRO
   62 00000000                 QUAD             $reg
   63 00000000                 MOV              $reg,$reg,LSL#2
   64 00000000                 MEND
   65 00000000         
   66 00000000         ;sXi = *(PssX+1); sXr = *PssX; PssX += offset; PssX= R1
   67 00000000         
   68 00000000                 MACRO
   69 00000000                 LDR2Q            $sXr,$sXi, $PssX, $offset
   70 00000000                 LDRSH            $sXi, [$PssX, #2]
   71 00000000                 LDRSH            $sXr, [$PssX]
   72 00000000                 ADD              $PssX, $PssX, $offset
   73 00000000                 MEND
   74 00000000         
   75 00000000         ;!! Same macro, to be used when passing negative offset 
                       value !!
   76 00000000                 MACRO
   77 00000000                 LDR2Qm           $sXr, $sXi, $PssX, $offset
   78 00000000                 LDRSH            $sXi, [$PssX, #2]
   79 00000000                 LDRSH            $sXr, [$PssX]
   80 00000000                 SUB              $PssX, $PssX, $offset
   81 00000000                 MEND
   82 00000000         
   83 00000000         ;(PssX+1)= sXi;  *PssX=sXr; PssX += offset;



ARM Macro Assembler    Page 3 


   84 00000000                 MACRO
   85 00000000                 STR2Q            $sXr, $sXi, $PssX, $offset
   86 00000000                 STRH             $sXi, [$PssX, #2]
   87 00000000                 STRH             $sXr, [$PssX]
   88 00000000                 ADD              $PssX, $PssX, $offset
   89 00000000                 MEND
   90 00000000         
   91 00000000         ; YY = Cplx_conjugate_mul(Y,K)
   92 00000000         ;  Y = YYr + i*YYi
   93 00000000         ; use the following trick
   94 00000000         ;  K = (Kr-Ki) + i*Ki
   95 00000000                 MACRO
   96 00000000                 CXMUL_V7         $YYr, $YYi, $Yr, $Yi, $Kr, $Ki,
$tmp,$tmp2
   97 00000000                 SUB              $tmp2, $Yi, $Yr ; sYi-sYr
   98 00000000                 MUL              $tmp, $tmp2, $Ki 
                                                            ; (sYi-sYr)*sKi
   99 00000000                 ADD              $tmp2, $Kr, $Ki, LSL#1 
                                                            ; (sKr+sKi)
  100 00000000                 MLA              $YYi, $Yi, $Kr, $tmp ; lYYi = s
                                                            Yi*sKr-sYr*sKi
  101 00000000                 MLA              $YYr, $Yr, $tmp2, $tmp ; lYYr =
                                                             sYr*sKr+sYi*sKi
  102 00000000                 MEND
  103 00000000         
  104 00000000         ; Four point complex Fast Fourier Transform  
  105 00000000                 MACRO
  106 00000000                 CXADDA4          $s
  107 00000000         ; (C,D) = (C+D, C-D)
  108 00000000                 ADD              Cr, Cr, Dr
  109 00000000                 ADD              Ci, Ci, Di
  110 00000000                 SUB              Dr, Cr, Dr, LSL#1
  111 00000000                 SUB              Di, Ci, Di, LSL#1
  112 00000000         ; (A,B) = (A+(B>>s), A-(B>>s))/4
  113 00000000                 MOV              Ar, Ar, ASR#2
  114 00000000                 MOV              Ai, Ai, ASR#2
  115 00000000                 ADD              Ar, Ar, Br, ASR#(2+$s)
  116 00000000                 ADD              Ai, Ai, Bi, ASR#(2+$s)
  117 00000000                 SUB              Br, Ar, Br, ASR#(1+$s)
  118 00000000                 SUB              Bi, Ai, Bi, ASR#(1+$s)
  119 00000000         ; (A,C) = (A+(C>>s)/4, A-(C>>s)/4)
  120 00000000                 ADD              Ar, Ar, Cr, ASR#(2+$s)
  121 00000000                 ADD              Ai, Ai, Ci, ASR#(2+$s)
  122 00000000                 SUB              Cr, Ar, Cr, ASR#(1+$s)
  123 00000000                 SUB              Ci, Ai, Ci, ASR#(1+$s)
  124 00000000         ; (B,D) = (B-i*(D>>s)/4, B+i*(D>>s)/4)
  125 00000000                 ADD              Br, Br, Di, ASR#(2+$s)
  126 00000000                 SUB              Bi, Bi, Dr, ASR#(2+$s)
  127 00000000                 SUB              Di, Br, Di, ASR#(1+$s)
  128 00000000                 ADD              Dr, Bi, Dr, ASR#(1+$s)
  129 00000000                 MEND
  130 00000000         
  131 00000000         
  132 00000000                 MACRO
  133 00000000                 BUTFLY4ZERO_OPT  $pIN,$offset, $pOUT
  134 00000000                 LDRSH            Ai, [$pIN, #2]
  135 00000000                 LDRSH            Ar, [$pIN]
  136 00000000                 ADD              $pIN, #NPT
  137 00000000                 LDRSH            Ci, [$pIN, #2]



ARM Macro Assembler    Page 4 


  138 00000000                 LDRSH            Cr, [$pIN]
  139 00000000                 ADD              $pIN, #NPT
  140 00000000                 LDRSH            Bi, [$pIN, #2]
  141 00000000                 LDRSH            Br, [$pIN]
  142 00000000                 ADD              $pIN, #NPT
  143 00000000                 LDRSH            Di, [$pIN, #2]
  144 00000000                 LDRSH            Dr, [$pIN]
  145 00000000                 ADD              $pIN, #NPT
  146 00000000         
  147 00000000         ; (C,D) = (C+D, C-D)
  148 00000000                 ADD              Cr, Cr, Dr
  149 00000000                 ADD              Ci, Ci, Di
  150 00000000                 SUB              Dr, Cr, Dr, LSL#1 ; trick
  151 00000000                 SUB              Di, Ci, Di, LSL#1 ;trick
  152 00000000         ; (A,B) = (A+B)/4, (A-B)/4
  153 00000000                 MOV              Ar, Ar, ASR#2
  154 00000000                 MOV              Ai, Ai, ASR#2
  155 00000000                 ADD              Ar, Ar, Br, ASR#2
  156 00000000                 ADD              Ai, Ai, Bi, ASR#2
  157 00000000                 SUB              Br, Ar, Br, ASR#1
  158 00000000                 SUB              Bi, Ai, Bi, ASR#1
  159 00000000         ; (A,C) = (A+C)/4, (A-C)/4
  160 00000000                 ADD              Ar, Ar, Cr, ASR#2
  161 00000000                 ADD              Ai, Ai, Ci, ASR#2
  162 00000000                 SUB              Cr, Ar, Cr, ASR#1
  163 00000000                 SUB              Ci, Ai, Ci, ASR#1
  164 00000000         ; (B,D) = (B-i*D)/4, (B+i*D)/4
  165 00000000                 ADD              Br, Br, Di, ASR#2
  166 00000000                 SUB              Bi, Bi, Dr, ASR#2
  167 00000000                 SUB              Di, Br, Di, ASR#1
  168 00000000                 ADD              Dr, Bi, Dr, ASR#1
  169 00000000         ;
  170 00000000                 STRH             Ai, [$pOUT, #2]
  171 00000000                 STRH             Ar, [$pOUT], #4
  172 00000000                 STRH             Bi, [$pOUT, #2]
  173 00000000                 STRH             Br, [$pOUT], #4
  174 00000000                 STRH             Ci, [$pOUT, #2]
  175 00000000                 STRH             Cr, [$pOUT], #4
  176 00000000                 STRH             Dr, [$pOUT, #2] 
                                                            ; inversion here
  177 00000000                 STRH             Di, [$pOUT], #4
  178 00000000                 MEND
  179 00000000         
  180 00000000                 MACRO
  181 00000000                 BUTFLY4_V7       $pssDin,$offset,$pssDout,$qform
at,$pssK
  182 00000000                 LDR2Qm           Ar,Ai,$pssDin, $offset 
                                                            ;-$offset
  183 00000000                 LDR2Q            Dr,Di,$pssK, #4
  184 00000000         ; format CXMUL_V7 YYr, YYi, Yr, Yi, Kr, Ki,tmp,tmp2
  185 00000000                 CXMUL_V7         Dr,Di,Ar,Ai,Dr,Di,tmp,tmp2
  186 00000000                 LDR2Qm           Ar,Ai,$pssDin,$offset ;-$offset
                                                            
  187 00000000                 LDR2Q            Cr,Ci,$pssK,#4
  188 00000000                 CXMUL_V7         Cr,Ci,Ar,Ai,Cr,Ci,tmp,tmp2
  189 00000000                 LDR2Qm           Ar,Ai, $pssDin, $offset 
                                                            ;-$offset
  190 00000000                 LDR2Q            Br,Bi, $pssK, #4
  191 00000000                 CXMUL_V7         Br,Bi,Ar,Ai,Br,Bi,tmp,tmp2



ARM Macro Assembler    Page 5 


  192 00000000                 LDR2Q            Ar,Ai, $pssDin, #0
  193 00000000                 CXADDA4          $qformat
  194 00000000                 STRH             Ai, [$pssDout, #2]
  195 00000000                 STRH             Ar, [$pssDout]
  196 00000000                 ADD              $pssDout, $pssDout, $offset
  197 00000000                 STRH             Bi, [$pssDout, #2]
  198 00000000                 STRH             Br, [$pssDout]
  199 00000000                 ADD              $pssDout, $pssDout, $offset
  200 00000000                 STRH             Ci, [$pssDout, #2]
  201 00000000                 STRH             Cr, [$pssDout]
  202 00000000                 ADD              $pssDout, $pssDout, $offset
  203 00000000                 STRH             Dr, [$pssDout, #2] 
                                                            ; inversion here
  204 00000000                 STRH             Di, [$pssDout], #4
  205 00000000                 MEND
  206 00000000         
  207 00000000         ;-------------------    CODE    ------------------------
                       --------
  208 00000000         ;=======================================================
                       ========================
  209 00000000         ;*******************************************************
                       ************************
  210 00000000         ;* Function Name  : cr4_fft_1024_stm32
  211 00000000         ;* Description    : complex radix-4 1024 points FFT
  212 00000000         ;* Input          : - R0 = pssOUT: Output array .
  213 00000000         ;*                  - R1 = pssIN: Input array 
  214 00000000         ;*                  - R2 = Nbin: =1024 number of points,
                        this optimized FFT function  
  215 00000000         ;*                    can only convert 1024 points.
  216 00000000         ;* Output         : None 
  217 00000000         ;* Return         : None
  218 00000000         ;*******************************************************
                       ************************
  219 00000000         cr4_fft_4096_stm32
  220 00000000         
  221 00000000 E92D 4FF0       STMFD            SP!, {R4-R11, LR}
  222 00000004         
  223 00000004 F04F 0C00       MOV              cntrbitrev, #0
  224 00000008 F04F 0300       MOV              index,#0
  225 0000000C         
  226 0000000C         preloop_v7
  227 0000000C EB01 5E1C       ADD              pssIN2, pssIN, cntrbitrev, LSR#
20 
                                                            ;4096-pts
  228 00000010                 BUTFLY4ZERO_OPT  pssIN2,Nbin,pssOUT
  134 00000010 F9BE 5002       LDRSH            Ai, [pssIN2, #2]
  135 00000014 F9BE 4000       LDRSH            Ar, [pssIN2]
  136 00000018 F50E 5E80       ADD              pssIN2, #NPT
  137 0000001C F9BE 9002       LDRSH            Ci, [pssIN2, #2]
  138 00000020 F9BE 8000       LDRSH            Cr, [pssIN2]
  139 00000024 F50E 5E80       ADD              pssIN2, #NPT
  140 00000028 F9BE 7002       LDRSH            Bi, [pssIN2, #2]
  141 0000002C F9BE 6000       LDRSH            Br, [pssIN2]
  142 00000030 F50E 5E80       ADD              pssIN2, #NPT
  143 00000034 F9BE B002       LDRSH            Di, [pssIN2, #2]
  144 00000038 F9BE A000       LDRSH            Dr, [pssIN2]
  145 0000003C F50E 5E80       ADD              pssIN2, #NPT
  146 00000040         
  147 00000040         ; (C,D) = (C+D, C-D)



ARM Macro Assembler    Page 6 


  148 00000040 44D0            ADD              Cr, Cr, Dr
  149 00000042 44D9            ADD              Ci, Ci, Di
  150 00000044 EBA8 0A4A       SUB              Dr, Cr, Dr, LSL#1 ; trick
  151 00000048 EBA9 0B4B       SUB              Di, Ci, Di, LSL#1 ;trick
  152 0000004C         ; (A,B) = (A+B)/4, (A-B)/4
  153 0000004C EA4F 04A4       MOV              Ar, Ar, ASR#2
  154 00000050 EA4F 05A5       MOV              Ai, Ai, ASR#2
  155 00000054 EB04 04A6       ADD              Ar, Ar, Br, ASR#2
  156 00000058 EB05 05A7       ADD              Ai, Ai, Bi, ASR#2
  157 0000005C EBA4 0666       SUB              Br, Ar, Br, ASR#1
  158 00000060 EBA5 0767       SUB              Bi, Ai, Bi, ASR#1
  159 00000064         ; (A,C) = (A+C)/4, (A-C)/4
  160 00000064 EB04 04A8       ADD              Ar, Ar, Cr, ASR#2
  161 00000068 EB05 05A9       ADD              Ai, Ai, Ci, ASR#2
  162 0000006C EBA4 0868       SUB              Cr, Ar, Cr, ASR#1
  163 00000070 EBA5 0969       SUB              Ci, Ai, Ci, ASR#1
  164 00000074         ; (B,D) = (B-i*D)/4, (B+i*D)/4
  165 00000074 EB06 06AB       ADD              Br, Br, Di, ASR#2
  166 00000078 EBA7 07AA       SUB              Bi, Bi, Dr, ASR#2
  167 0000007C EBA6 0B6B       SUB              Di, Br, Di, ASR#1
  168 00000080 EB07 0A6A       ADD              Dr, Bi, Dr, ASR#1
  169 00000084         ;
  170 00000084 8045            STRH             Ai, [pssOUT, #2]
  171 00000086 F820 4B04       STRH             Ar, [pssOUT], #4
  172 0000008A 8047            STRH             Bi, [pssOUT, #2]
  173 0000008C F820 6B04       STRH             Br, [pssOUT], #4
  174 00000090 F8A0 9002       STRH             Ci, [pssOUT, #2]
  175 00000094 F820 8B04       STRH             Cr, [pssOUT], #4
  176 00000098 F8A0 A002       STRH             Dr, [pssOUT, #2] 
                                                            ; inversion here
  177 0000009C F820 BB04       STRH             Di, [pssOUT], #4
  229 000000A0                 INC              index
   57 000000A0 F103 0301       ADD              index,index,#1
  230 000000A4 FA93 FCA3       RBIT             cntrbitrev,index
  231 000000A8 F5B3 6F80       CMP              index,#1024 ;4096-pts
  232 000000AC D1AE            BNE              preloop_v7
  233 000000AE         
  234 000000AE         
  235 000000AE EBA0 0182       SUB              pssX, pssOUT, Nbin, LSL#2
  236 000000B2 F04F 0310       MOV              index, #16
  237 000000B6 0912            MOVS             butternbr, Nbin, LSR#4 ;dual us
                                                            e of register 
  238 000000B8         
  239 000000B8         ;-------------------------------------------------------
                       -----------------------
  240 000000B8         ;   The FFT coefficients table can be stored into Flash 
                       or RAM. 
  241 000000B8         ;   The following two lines of code allow selecting the 
                       method for coefficients 
  242 000000B8         ;   storage. 
  243 000000B8         ;   In the case of choosing coefficients in RAM, you hav
                       e to:
  244 000000B8         ;   1. Include the file table_fft.h, which is a part of 
                       the DSP library, 
  245 000000B8         ;      in your main file.
  246 000000B8         ;   2. Decomment the line LDR.W pssK, =TableFFT and comm
                       ent the line 
  247 000000B8         ;      ADRL    pssK, TableFFT_V7
  248 000000B8         ;   3. Comment all the TableFFT_V7 data.



ARM Macro Assembler    Page 7 


  249 000000B8         ;-------------------------------------------------------
                       -----------------------
  250 000000B8 F20F 1034 
              F100 0000        ADRL             pssK, TableFFT_V7 
                                                            ; Coeff in Flash 
  251 000000C0         ;LDR.W pssK, =TableFFT      ; Coeff in RAM 
  252 000000C0         
  253 000000C0         ;................................
  254 000000C0         passloop_v7
  255 000000C0 B406            STMFD            SP!, {pssX,butternbr}
  256 000000C2 EB03 0C43       ADD              tmp, index, index, LSL#1
  257 000000C6 4461            ADD              pssX, pssX, tmp
  258 000000C8 F5A2 3280       SUB              butternbr, butternbr, #1<<16
  259 000000CC         ;................
  260 000000CC         grouploop_v7
  261 000000CC EB02 3283       ADD              butternbr,butternbr,index,LSL#(
16-2)
  262 000000D0         ;.......
  263 000000D0         butterloop_v7
  264 000000D0                 BUTFLY4_V7       pssX,index,pssX,14,pssK
  182 000000D0                 LDR2Qm           Ar,Ai,pssX, index ;-$offset
   78 000000D0 F9B1 5002       LDRSH            Ai, [pssX, #2]
   79 000000D4 F9B1 4000       LDRSH            Ar, [pssX]
   80 000000D8 EBA1 0103       SUB              pssX, pssX, index
  183 000000DC                 LDR2Q            Dr,Di,pssK, #4
   70 000000DC F9B0 B002       LDRSH            Di, [pssK, #2]
   71 000000E0 F9B0 A000       LDRSH            Dr, [pssK]
   72 000000E4 F100 0004       ADD              pssK, pssK, #4
  184 000000E8         ; format CXMUL_V7 YYr, YYi, Yr, Yi, Kr, Ki,tmp,tmp2
  185 000000E8                 CXMUL_V7         Dr,Di,Ar,Ai,Dr,Di,tmp,tmp2
   97 000000E8 EBA5 0E04       SUB              tmp2, Ai, Ar ; sYi-sYr
   98 000000EC FB0E FC0B       MUL              tmp, tmp2, Di ; (sYi-sYr)*sKi
   99 000000F0 EB0A 0E4B       ADD              tmp2, Dr, Di, LSL#1 ; (sKr+sKi)
                                                            
  100 000000F4 FB05 CB0A       MLA              Di, Ai, Dr, tmp ; lYYi = sYi*sK
                                                            r-sYr*sKi
  101 000000F8 FB04 CA0E       MLA              Dr, Ar, tmp2, tmp ; lYYr = sYr*
                                                            sKr+sYi*sKi
  186 000000FC                 LDR2Qm           Ar,Ai,pssX,index ;-$offset
   78 000000FC F9B1 5002       LDRSH            Ai, [pssX, #2]
   79 00000100 F9B1 4000       LDRSH            Ar, [pssX]
   80 00000104 EBA1 0103       SUB              pssX, pssX, index
  187 00000108                 LDR2Q            Cr,Ci,pssK,#4
   70 00000108 F9B0 9002       LDRSH            Ci, [pssK, #2]
   71 0000010C F9B0 8000       LDRSH            Cr, [pssK]
   72 00000110 F100 0004       ADD              pssK, pssK, #4
  188 00000114                 CXMUL_V7         Cr,Ci,Ar,Ai,Cr,Ci,tmp,tmp2
   97 00000114 EBA5 0E04       SUB              tmp2, Ai, Ar ; sYi-sYr
   98 00000118 FB0E FC09       MUL              tmp, tmp2, Ci ; (sYi-sYr)*sKi
   99 0000011C EB08 0E49       ADD              tmp2, Cr, Ci, LSL#1 ; (sKr+sKi)
                                                            
  100 00000120 FB05 C908       MLA              Ci, Ai, Cr, tmp ; lYYi = sYi*sK
                                                            r-sYr*sKi
  101 00000124 FB04 C80E       MLA              Cr, Ar, tmp2, tmp ; lYYr = sYr*
                                                            sKr+sYi*sKi
  189 00000128                 LDR2Qm           Ar,Ai, pssX, index ;-$offset
   78 00000128 F9B1 5002       LDRSH            Ai, [pssX, #2]
   79 0000012C F9B1 4000       LDRSH            Ar, [pssX]
   80 00000130 EBA1 0103       SUB              pssX, pssX, index



ARM Macro Assembler    Page 8 


  190 00000134                 LDR2Q            Br,Bi, pssK, #4
   70 00000134 F9B0 7002       LDRSH            Bi, [pssK, #2]
   71 00000138 F9B0 6000       LDRSH            Br, [pssK]
   72 0000013C F100 0004       ADD              pssK, pssK, #4
  191 00000140                 CXMUL_V7         Br,Bi,Ar,Ai,Br,Bi,tmp,tmp2
   97 00000140 EBA5 0E04       SUB              tmp2, Ai, Ar ; sYi-sYr
   98 00000144 FB0E FC07       MUL              tmp, tmp2, Bi ; (sYi-sYr)*sKi
   99 00000148 EB06 0E47       ADD              tmp2, Br, Bi, LSL#1 ; (sKr+sKi)
                                                            
  100 0000014C FB05 C706       MLA              Bi, Ai, Br, tmp ; lYYi = sYi*sK
                                                            r-sYr*sKi
  101 00000150 FB04 C60E       MLA              Br, Ar, tmp2, tmp ; lYYr = sYr*
                                                            sKr+sYi*sKi
  192 00000154                 LDR2Q            Ar,Ai, pssX, #0
   70 00000154 F9B1 5002       LDRSH            Ai, [pssX, #2]
   71 00000158 F9B1 4000       LDRSH            Ar, [pssX]
   72 0000015C F101 0100       ADD              pssX, pssX, #0
  193 00000160                 CXADDA4          14
  107 00000160         ; (C,D) = (C+D, C-D)
  108 00000160 44D0            ADD              Cr, Cr, Dr
  109 00000162 44D9            ADD              Ci, Ci, Di
  110 00000164 EBA8 0A4A       SUB              Dr, Cr, Dr, LSL#1
  111 00000168 EBA9 0B4B       SUB              Di, Ci, Di, LSL#1
  112 0000016C         ; (A,B) = (A+(B>>s), A-(B>>s))/4
  113 0000016C EA4F 04A4       MOV              Ar, Ar, ASR#2
  114 00000170 EA4F 05A5       MOV              Ai, Ai, ASR#2
  115 00000174 EB04 4426       ADD              Ar, Ar, Br, ASR#(2+14)
  116 00000178 EB05 4527       ADD              Ai, Ai, Bi, ASR#(2+14)
  117 0000017C EBA4 36E6       SUB              Br, Ar, Br, ASR#(1+14)
  118 00000180 EBA5 37E7       SUB              Bi, Ai, Bi, ASR#(1+14)
  119 00000184         ; (A,C) = (A+(C>>s)/4, A-(C>>s)/4)
  120 00000184 EB04 4428       ADD              Ar, Ar, Cr, ASR#(2+14)
  121 00000188 EB05 4529       ADD              Ai, Ai, Ci, ASR#(2+14)
  122 0000018C EBA4 38E8       SUB              Cr, Ar, Cr, ASR#(1+14)
  123 00000190 EBA5 39E9       SUB              Ci, Ai, Ci, ASR#(1+14)
  124 00000194         ; (B,D) = (B-i*(D>>s)/4, B+i*(D>>s)/4)
  125 00000194 EB06 462B       ADD              Br, Br, Di, ASR#(2+14)
  126 00000198 EBA7 472A       SUB              Bi, Bi, Dr, ASR#(2+14)
  127 0000019C EBA6 3BEB       SUB              Di, Br, Di, ASR#(1+14)
  128 000001A0 EB07 3AEA       ADD              Dr, Bi, Dr, ASR#(1+14)
  194 000001A4 804D            STRH             Ai, [pssX, #2]
  195 000001A6 800C            STRH             Ar, [pssX]
  196 000001A8 4419            ADD              pssX, pssX, index
  197 000001AA 804F            STRH             Bi, [pssX, #2]
  198 000001AC 800E            STRH             Br, [pssX]
  199 000001AE 4419            ADD              pssX, pssX, index
  200 000001B0 F8A1 9002       STRH             Ci, [pssX, #2]
  201 000001B4 F8A1 8000       STRH             Cr, [pssX]
  202 000001B8 4419            ADD              pssX, pssX, index
  203 000001BA F8A1 A002       STRH             Dr, [pssX, #2] ; inversion here
                                                            
  204 000001BE F821 BB04       STRH             Di, [pssX], #4
  265 000001C2 F5B2 3280       SUBS             butternbr,butternbr, #1<<16
  266 000001C6 DA83            BGE              butterloop_v7
  267 000001C8         ;.......
  268 000001C8 EB03 0C43       ADD              tmp, index, index, LSL#1
  269 000001CC 4461            ADD              pssX, pssX, tmp
  270 000001CE                 DEC              butternbr
   52 000001CE F1A2 0201       SUB              butternbr,butternbr,#1



ARM Macro Assembler    Page 9 


  271 000001D2 EA5F 4E02       MOVS             tmp2, butternbr, LSL#16
  272 000001D6 BF18            IT               NE
  273 000001D8 EBA0 000C       SUBNE            pssK, pssK, tmp
  274 000001DC F47F AF76       BNE              grouploop_v7
  275 000001E0         ;................
  276 000001E0 BC06            LDMFD            sp!, {pssX, butternbr}
  277 000001E2                 QUAD             index
   63 000001E2 EA4F 0383       MOV              index,index,LSL#2
  278 000001E6 0892            MOVS             butternbr, butternbr, LSR#2 ; l
                                                            oop nbr /= radix 
  279 000001E8 F47F AF6A       BNE              passloop_v7
  280 000001EC         ;................................
  281 000001EC E8BD 8FF0       LDMFD            SP!, {R4-R11, PC}
  282 000001F0         
  283 000001F0         ;=======================================================
                       ======================
  284 000001F0         
  285 000001F0         TableFFT_V7
  286 000001F0         ;N=16
  287 000001F0 00 40 00 
              00 00 40 
              00 00 00 
              40 00 00         DCW              0x4000,0x0000, 0x4000,0x0000, 0
x4000,0x0000
  288 000001FC 5D DD 21 
              3B A3 22 
              7E 18 00 
              00 41 2D         DCW              0xdd5d,0x3b21, 0x22a3,0x187e, 0
x0000,0x2d41
  289 00000208 7E A5 41 
              2D 00 00 
              41 2D 00 
              C0 00 40         DCW              0xa57e,0x2d41, 0x0000,0x2d41, 0
xc000,0x4000
  290 00000214 5D DD 82 
              E7 5D DD 
              21 3B 7E 
              A5 41 2D         DCW              0xdd5d,0xe782, 0xdd5d,0x3b21, 0
xa57e,0x2d41
  291 00000220         ; N=64
  292 00000220 00 40 00 
              00 00 40 
              00 00 00 
              40 00 00         DCW              0x4000,0x0000, 0x4000,0x0000, 0
x4000,0x0000
  293 0000022C AA 2A 94 
              12 6B 39 
              46 06 49 
              32 7C 0C         DCW              0x2aaa,0x1294, 0x396b,0x0646, 0
x3249,0x0c7c
  294 00000238 A8 11 8E 
              23 49 32 
              7C 0C A3 
              22 7E 18         DCW              0x11a8,0x238e, 0x3249,0x0c7c, 0
x22a3,0x187e
  295 00000244 21 F7 79 
              31 AA 2A 
              94 12 A8 
              11 8E 23         DCW              0xf721,0x3179, 0x2aaa,0x1294, 0



ARM Macro Assembler    Page 10 


x11a8,0x238e
  296 00000250 5D DD 21 
              3B A3 22 
              7E 18 00 
              00 41 2D         DCW              0xdd5d,0x3b21, 0x22a3,0x187e, 0
x0000,0x2d41
  297 0000025C 95 C6 B1 
              3F 46 1A 
              2B 1E 58 
              EE 37 35         DCW              0xc695,0x3fb1, 0x1a46,0x1e2b, 0
xee58,0x3537
  298 00000268 BE B4 C5 
              3E A8 11 
              8E 23 5D 
              DD 21 3B         DCW              0xb4be,0x3ec5, 0x11a8,0x238e, 0
xdd5d,0x3b21
  299 00000274 63 A9 71 
              38 DF 08 
              9A 28 B7 
              CD C5 3E         DCW              0xa963,0x3871, 0x08df,0x289a, 0
xcdb7,0x3ec5
  300 00000280 7E A5 41 
              2D 00 00 
              41 2D 00 
              C0 00 40         DCW              0xa57e,0x2d41, 0x0000,0x2d41, 0
xc000,0x4000
  301 0000028C 63 A9 2B 
              1E 21 F7 
              79 31 BE 
              B4 C5 3E         DCW              0xa963,0x1e2b, 0xf721,0x3179, 0
xb4be,0x3ec5
  302 00000298 BE B4 7C 
              0C 58 EE 
              37 35 61 
              AC 21 3B         DCW              0xb4be,0x0c7c, 0xee58,0x3537, 0
xac61,0x3b21
  303 000002A4 95 C6 BA 
              F9 BA E5 
              71 38 3B 
              A7 37 35         DCW              0xc695,0xf9ba, 0xe5ba,0x3871, 0
xa73b,0x3537
  304 000002B0 5D DD 82 
              E7 5D DD 
              21 3B 7E 
              A5 41 2D         DCW              0xdd5d,0xe782, 0xdd5d,0x3b21, 0
xa57e,0x2d41
  305 000002BC 21 F7 66 
              D7 56 D5 
              3F 3D 3B 
              A7 8E 23         DCW              0xf721,0xd766, 0xd556,0x3d3f, 0
xa73b,0x238e
  306 000002C8 A8 11 C9 
              CA B7 CD 
              C5 3E 61 
              AC 7E 18         DCW              0x11a8,0xcac9, 0xcdb7,0x3ec5, 0
xac61,0x187e
  307 000002D4 AA 2A C1 
              C2 95 C6 
              B1 3F BE 



ARM Macro Assembler    Page 11 


              B4 7C 0C         DCW              0x2aaa,0xc2c1, 0xc695,0x3fb1, 0
xb4be,0x0c7c
  308 000002E0         ; N=256
  309 000002E0 00 40 00 
              00 00 40 
              00 00 00 
              40 00 00         DCW              0x4000,0x0000, 0x4000,0x0000, 0
x4000,0x0000
  310 000002EC 1E 3B B5 
              04 69 3E 
              92 01 C8 
              3C 24 03         DCW              0x3b1e,0x04b5, 0x3e69,0x0192, 0
x3cc8,0x0324
  311 000002F8 EB 35 64 
              09 C8 3C 
              24 03 6B 
              39 46 06         DCW              0x35eb,0x0964, 0x3cc8,0x0324, 0
x396b,0x0646
  312 00000304 6C 30 06 
              0E 1E 3B 
              B5 04 EB 
              35 64 09         DCW              0x306c,0x0e06, 0x3b1e,0x04b5, 0
x35eb,0x0964
  313 00000310 AA 2A 94 
              12 6B 39 
              46 06 49 
              32 7C 0C         DCW              0x2aaa,0x1294, 0x396b,0x0646, 0
x3249,0x0c7c
  314 0000031C AE 24 09 
              17 AF 37 
              D6 07 88 
              2E 8D 0F         DCW              0x24ae,0x1709, 0x37af,0x07d6, 0
x2e88,0x0f8d
  315 00000328 7E 1E 5D 
              1B EB 35 
              64 09 AA 
              2A 94 12         DCW              0x1e7e,0x1b5d, 0x35eb,0x0964, 0
x2aaa,0x1294
  316 00000334 24 18 8C 
              1F 1E 34 
              F1 0A B3 
              26 90 15         DCW              0x1824,0x1f8c, 0x341e,0x0af1, 0
x26b3,0x1590
  317 00000340 A8 11 8E 
              23 49 32 
              7C 0C A3 
              22 7E 18         DCW              0x11a8,0x238e, 0x3249,0x0c7c, 0
x22a3,0x187e
  318 0000034C 14 0B 60 
              27 6C 30 
              06 0E 7E 
              1E 5D 1B         DCW              0x0b14,0x2760, 0x306c,0x0e06, 0
x1e7e,0x1b5d
  319 00000358 71 04 FB 
              2A 88 2E 
              8D 0F 46 
              1A 2B 1E         DCW              0x0471,0x2afb, 0x2e88,0x0f8d, 0
x1a46,0x1e2b
  320 00000364 C7 FD 5A 



ARM Macro Assembler    Page 12 


              2E 9D 2C 
              12 11 FE 
              15 E7 20         DCW              0xfdc7,0x2e5a, 0x2c9d,0x1112, 0
x15fe,0x20e7
  321 00000370 21 F7 79 
              31 AA 2A 
              94 12 A8 
              11 8E 23         DCW              0xf721,0x3179, 0x2aaa,0x1294, 0
x11a8,0x238e
  322 0000037C 87 F0 53 
              34 B2 28 
              13 14 48 
              0D 20 26         DCW              0xf087,0x3453, 0x28b2,0x1413, 0
x0d48,0x2620
  323 00000388 02 EA E5 
              36 B3 26 
              90 15 DF 
              08 9A 28         DCW              0xea02,0x36e5, 0x26b3,0x1590, 0
x08df,0x289a
  324 00000394 9C E3 2B 
              39 AE 24 
              09 17 71 
              04 FB 2A         DCW              0xe39c,0x392b, 0x24ae,0x1709, 0
x0471,0x2afb
  325 000003A0 5D DD 21 
              3B A3 22 
              7E 18 00 
              00 41 2D         DCW              0xdd5d,0x3b21, 0x22a3,0x187e, 0
x0000,0x2d41
  326 000003AC 4E D7 C5 
              3C 93 20 
              EF 19 8F 
              FB 6C 2F         DCW              0xd74e,0x3cc5, 0x2093,0x19ef, 0
xfb8f,0x2f6c
  327 000003B8 78 D1 15 
              3E 7E 1E 
              5D 1B 21 
              F7 79 31         DCW              0xd178,0x3e15, 0x1e7e,0x1b5d, 0
xf721,0x3179
  328 000003C4 E2 CB 0F 
              3F 64 1C 
              C6 1C B8 
              F2 68 33         DCW              0xcbe2,0x3f0f, 0x1c64,0x1cc6, 0
xf2b8,0x3368
  329 000003D0 95 C6 B1 
              3F 46 1A 
              2B 1E 58 
              EE 37 35         DCW              0xc695,0x3fb1, 0x1a46,0x1e2b, 0
xee58,0x3537
  330 000003DC 97 C1 FB 
              3F 24 18 
              8C 1F 02 
              EA E5 36         DCW              0xc197,0x3ffb, 0x1824,0x1f8c, 0
xea02,0x36e5
  331 000003E8 F0 BC EC 
              3F FE 15 
              E7 20 BA 
              E5 71 38         DCW              0xbcf0,0x3fec, 0x15fe,0x20e7, 0
xe5ba,0x3871



ARM Macro Assembler    Page 13 


  332 000003F4 A6 B8 85 
              3F D5 13 
              3D 22 82 
              E1 DB 39         DCW              0xb8a6,0x3f85, 0x13d5,0x223d, 0
xe182,0x39db
  333 00000400 BE B4 C5 
              3E A8 11 
              8E 23 5D 
              DD 21 3B         DCW              0xb4be,0x3ec5, 0x11a8,0x238e, 0
xdd5d,0x3b21
  334 0000040C 40 B1 AF 
              3D 79 0F 
              DA 24 4D 
              D9 42 3C         DCW              0xb140,0x3daf, 0x0f79,0x24da, 0
xd94d,0x3c42
  335 00000418 2E AE 42 
              3C 48 0D 
              20 26 56 
              D5 3F 3D         DCW              0xae2e,0x3c42, 0x0d48,0x2620, 0
xd556,0x3d3f
  336 00000424 8E AB 82 
              3A 14 0B 
              60 27 78 
              D1 15 3E         DCW              0xab8e,0x3a82, 0x0b14,0x2760, 0
xd178,0x3e15
  337 00000430 63 A9 71 
              38 DF 08 
              9A 28 B7 
              CD C5 3E         DCW              0xa963,0x3871, 0x08df,0x289a, 0
xcdb7,0x3ec5
  338 0000043C B1 A7 12 
              36 A9 06 
              CE 29 15 
              CA 4F 3F         DCW              0xa7b1,0x3612, 0x06a9,0x29ce, 0
xca15,0x3f4f
  339 00000448 78 A6 68 
              33 71 04 
              FB 2A 95 
              C6 B1 3F         DCW              0xa678,0x3368, 0x0471,0x2afb, 0
xc695,0x3fb1
  340 00000454 BC A5 76 
              30 39 02 
              21 2C 38 
              C3 EC 3F         DCW              0xa5bc,0x3076, 0x0239,0x2c21, 0
xc338,0x3fec
  341 00000460 7E A5 41 
              2D 00 00 
              41 2D 00 
              C0 00 40         DCW              0xa57e,0x2d41, 0x0000,0x2d41, 0
xc000,0x4000
  342 0000046C BC A5 CE 
              29 C7 FD 
              5A 2E F0 
              BC EC 3F         DCW              0xa5bc,0x29ce, 0xfdc7,0x2e5a, 0
xbcf0,0x3fec
  343 00000478 78 A6 20 
              26 8F FB 
              6C 2F 09 
              BA B1 3F         DCW              0xa678,0x2620, 0xfb8f,0x2f6c, 0



ARM Macro Assembler    Page 14 


xba09,0x3fb1
  344 00000484 B1 A7 3D 
              22 57 F9 
              76 30 4D 
              B7 4F 3F         DCW              0xa7b1,0x223d, 0xf957,0x3076, 0
xb74d,0x3f4f
  345 00000490 63 A9 2B 
              1E 21 F7 
              79 31 BE 
              B4 C5 3E         DCW              0xa963,0x1e2b, 0xf721,0x3179, 0
xb4be,0x3ec5
  346 0000049C 8E AB EF 
              19 EC F4 
              74 32 5E 
              B2 15 3E         DCW              0xab8e,0x19ef, 0xf4ec,0x3274, 0
xb25e,0x3e15
  347 000004A8 2E AE 90 
              15 B8 F2 
              68 33 2D 
              B0 3F 3D         DCW              0xae2e,0x1590, 0xf2b8,0x3368, 0
xb02d,0x3d3f
  348 000004B4 40 B1 12 
              11 87 F0 
              53 34 2E 
              AE 42 3C         DCW              0xb140,0x1112, 0xf087,0x3453, 0
xae2e,0x3c42
  349 000004C0 BE B4 7C 
              0C 58 EE 
              37 35 61 
              AC 21 3B         DCW              0xb4be,0x0c7c, 0xee58,0x3537, 0
xac61,0x3b21
  350 000004CC A6 B8 D6 
              07 2B EC 
              12 36 C8 
              AA DB 39         DCW              0xb8a6,0x07d6, 0xec2b,0x3612, 0
xaac8,0x39db
  351 000004D8 F0 BC 24 
              03 02 EA 
              E5 36 63 
              A9 71 38         DCW              0xbcf0,0x0324, 0xea02,0x36e5, 0
xa963,0x3871
  352 000004E4 97 C1 6E 
              FE DC E7 
              B0 37 34 
              A8 E5 36         DCW              0xc197,0xfe6e, 0xe7dc,0x37b0, 0
xa834,0x36e5
  353 000004F0 95 C6 BA 
              F9 BA E5 
              71 38 3B 
              A7 37 35         DCW              0xc695,0xf9ba, 0xe5ba,0x3871, 0
xa73b,0x3537
  354 000004FC E2 CB 0F 
              F5 9C E3 
              2B 39 78 
              A6 68 33         DCW              0xcbe2,0xf50f, 0xe39c,0x392b, 0
xa678,0x3368
  355 00000508 78 D1 73 
              F0 82 E1 
              DB 39 ED 



ARM Macro Assembler    Page 15 


              A5 79 31         DCW              0xd178,0xf073, 0xe182,0x39db, 0
xa5ed,0x3179
  356 00000514 4E D7 ED 
              EB 6D DF 
              82 3A 99 
              A5 6C 2F         DCW              0xd74e,0xebed, 0xdf6d,0x3a82, 0
xa599,0x2f6c
  357 00000520 5D DD 82 
              E7 5D DD 
              21 3B 7E 
              A5 41 2D         DCW              0xdd5d,0xe782, 0xdd5d,0x3b21, 0
xa57e,0x2d41
  358 0000052C 9C E3 3A 
              E3 52 DB 
              B6 3B 99 
              A5 FB 2A         DCW              0xe39c,0xe33a, 0xdb52,0x3bb6, 0
xa599,0x2afb
  359 00000538 02 EA 19 
              DF 4D D9 
              42 3C ED 
              A5 9A 28         DCW              0xea02,0xdf19, 0xd94d,0x3c42, 0
xa5ed,0x289a
  360 00000544 87 F0 26 
              DB 4E D7 
              C5 3C 78 
              A6 20 26         DCW              0xf087,0xdb26, 0xd74e,0x3cc5, 0
xa678,0x2620
  361 00000550 21 F7 66 
              D7 56 D5 
              3F 3D 3B 
              A7 8E 23         DCW              0xf721,0xd766, 0xd556,0x3d3f, 0
xa73b,0x238e
  362 0000055C C7 FD DF 
              D3 63 D3 
              AF 3D 34 
              A8 E7 20         DCW              0xfdc7,0xd3df, 0xd363,0x3daf, 0
xa834,0x20e7
  363 00000568 71 04 94 
              D0 78 D1 
              15 3E 63 
              A9 2B 1E         DCW              0x0471,0xd094, 0xd178,0x3e15, 0
xa963,0x1e2b
  364 00000574 14 0B 8C 
              CD 94 CF 
              72 3E C8 
              AA 5D 1B         DCW              0x0b14,0xcd8c, 0xcf94,0x3e72, 0
xaac8,0x1b5d
  365 00000580 A8 11 C9 
              CA B7 CD 
              C5 3E 61 
              AC 7E 18         DCW              0x11a8,0xcac9, 0xcdb7,0x3ec5, 0
xac61,0x187e
  366 0000058C 24 18 50 
              C8 E2 CB 
              0F 3F 2E 
              AE 90 15         DCW              0x1824,0xc850, 0xcbe2,0x3f0f, 0
xae2e,0x1590
  367 00000598 7E 1E 25 
              C6 15 CA 



ARM Macro Assembler    Page 16 


              4F 3F 2D 
              B0 94 12         DCW              0x1e7e,0xc625, 0xca15,0x3f4f, 0
xb02d,0x1294
  368 000005A4 AE 24 4A 
              C4 51 C8 
              85 3F 5E 
              B2 8D 0F         DCW              0x24ae,0xc44a, 0xc851,0x3f85, 0
xb25e,0x0f8d
  369 000005B0 AA 2A C1 
              C2 95 C6 
              B1 3F BE 
              B4 7C 0C         DCW              0x2aaa,0xc2c1, 0xc695,0x3fb1, 0
xb4be,0x0c7c
  370 000005BC 6C 30 8E 
              C1 E2 C4 
              D4 3F 4D 
              B7 64 09         DCW              0x306c,0xc18e, 0xc4e2,0x3fd4, 0
xb74d,0x0964
  371 000005C8 EB 35 B1 
              C0 38 C3 
              EC 3F 09 
              BA 46 06         DCW              0x35eb,0xc0b1, 0xc338,0x3fec, 0
xba09,0x0646
  372 000005D4 1E 3B 2C 
              C0 97 C1 
              FB 3F F0 
              BC 24 03         DCW              0x3b1e,0xc02c, 0xc197,0x3ffb, 0
xbcf0,0x0324
  373 000005E0         ; N=1024
  374 000005E0 00 40 00 
              00 00 40 
              00 00 00 
              40 00 00         DCW              0x4000,0x0000, 0x4000,0x0000, 0
x4000,0x0000
  375 000005EC D0 3E 2E 
              01 9B 3F 
              65 00 36 
              3F C9 00         DCW              0x3ed0,0x012e, 0x3f9b,0x0065, 0
x3f36,0x00c9
  376 000005F8 9A 3D 5B 
              02 36 3F 
              C9 00 69 
              3E 92 01         DCW              0x3d9a,0x025b, 0x3f36,0x00c9, 0
x3e69,0x0192
  377 00000604 5F 3C 88 
              03 D0 3E 
              2E 01 9A 
              3D 5B 02         DCW              0x3c5f,0x0388, 0x3ed0,0x012e, 0
x3d9a,0x025b
  378 00000610 1E 3B B5 
              04 69 3E 
              92 01 C8 
              3C 24 03         DCW              0x3b1e,0x04b5, 0x3e69,0x0192, 0
x3cc8,0x0324
  379 0000061C D9 39 E2 
              05 02 3E 
              F7 01 F4 
              3B ED 03         DCW              0x39d9,0x05e2, 0x3e02,0x01f7, 0
x3bf4,0x03ed



ARM Macro Assembler    Page 17 


  380 00000628 8E 38 0E 
              07 9A 3D 
              5B 02 1E 
              3B B5 04         DCW              0x388e,0x070e, 0x3d9a,0x025b, 0
x3b1e,0x04b5
  381 00000634 3F 37 39 
              08 31 3D 
              C0 02 46 
              3A 7E 05         DCW              0x373f,0x0839, 0x3d31,0x02c0, 0
x3a46,0x057e
  382 00000640 EB 35 64 
              09 C8 3C 
              24 03 6B 
              39 46 06         DCW              0x35eb,0x0964, 0x3cc8,0x0324, 0
x396b,0x0646
  383 0000064C 92 34 8E 
              0A 5F 3C 
              88 03 8E 
              38 0E 07         DCW              0x3492,0x0a8e, 0x3c5f,0x0388, 0
x388e,0x070e
  384 00000658 34 33 B7 
              0B F4 3B 
              ED 03 AF 
              37 D6 07         DCW              0x3334,0x0bb7, 0x3bf4,0x03ed, 0
x37af,0x07d6
  385 00000664 D2 31 DF 
              0C 8A 3B 
              51 04 CE 
              36 9D 08         DCW              0x31d2,0x0cdf, 0x3b8a,0x0451, 0
x36ce,0x089d
  386 00000670 6C 30 06 
              0E 1E 3B 
              B5 04 EB 
              35 64 09         DCW              0x306c,0x0e06, 0x3b1e,0x04b5, 0
x35eb,0x0964
  387 0000067C 02 2F 2B 
              0F B2 3A 
              1A 05 05 
              35 2B 0A         DCW              0x2f02,0x0f2b, 0x3ab2,0x051a, 0
x3505,0x0a2b
  388 00000688 93 2D 50 
              10 46 3A 
              7E 05 1E 
              34 F1 0A         DCW              0x2d93,0x1050, 0x3a46,0x057e, 0
x341e,0x0af1
  389 00000694 21 2C 73 
              11 D9 39 
              E2 05 34 
              33 B7 0B         DCW              0x2c21,0x1173, 0x39d9,0x05e2, 0
x3334,0x0bb7
  390 000006A0 AA 2A 94 
              12 6B 39 
              46 06 49 
              32 7C 0C         DCW              0x2aaa,0x1294, 0x396b,0x0646, 0
x3249,0x0c7c
  391 000006AC 31 29 B4 
              13 FD 38 
              AA 06 5B 
              31 41 0D         DCW              0x2931,0x13b4, 0x38fd,0x06aa, 0



ARM Macro Assembler    Page 18 


x315b,0x0d41
  392 000006B8 B3 27 D2 
              14 8E 38 
              0E 07 6C 
              30 06 0E         DCW              0x27b3,0x14d2, 0x388e,0x070e, 0
x306c,0x0e06
  393 000006C4 32 26 EE 
              15 1F 38 
              72 07 7B 
              2F CA 0E         DCW              0x2632,0x15ee, 0x381f,0x0772, 0
x2f7b,0x0eca
  394 000006D0 AE 24 09 
              17 AF 37 
              D6 07 88 
              2E 8D 0F         DCW              0x24ae,0x1709, 0x37af,0x07d6, 0
x2e88,0x0f8d
  395 000006DC 26 23 21 
              18 3F 37 
              39 08 93 
              2D 50 10         DCW              0x2326,0x1821, 0x373f,0x0839, 0
x2d93,0x1050
  396 000006E8 9C 21 37 
              19 CE 36 
              9D 08 9D 
              2C 12 11         DCW              0x219c,0x1937, 0x36ce,0x089d, 0
x2c9d,0x1112
  397 000006F4 0E 20 4B 
              1A 5D 36 
              01 09 A4 
              2B D3 11         DCW              0x200e,0x1a4b, 0x365d,0x0901, 0
x2ba4,0x11d3
  398 00000700 7E 1E 5D 
              1B EB 35 
              64 09 AA 
              2A 94 12         DCW              0x1e7e,0x1b5d, 0x35eb,0x0964, 0
x2aaa,0x1294
  399 0000070C EB 1C 6C 
              1C 78 35 
              C7 09 AF 
              29 54 13         DCW              0x1ceb,0x1c6c, 0x3578,0x09c7, 0
x29af,0x1354
  400 00000718 56 1B 79 
              1D 05 35 
              2B 0A B2 
              28 13 14         DCW              0x1b56,0x1d79, 0x3505,0x0a2b, 0
x28b2,0x1413
  401 00000724 BE 19 84 
              1E 92 34 
              8E 0A B3 
              27 D2 14         DCW              0x19be,0x1e84, 0x3492,0x0a8e, 0
x27b3,0x14d2
  402 00000730 24 18 8C 
              1F 1E 34 
              F1 0A B3 
              26 90 15         DCW              0x1824,0x1f8c, 0x341e,0x0af1, 0
x26b3,0x1590
  403 0000073C 88 16 91 
              20 A9 33 
              54 0B B1 



ARM Macro Assembler    Page 19 


              25 4C 16         DCW              0x1688,0x2091, 0x33a9,0x0b54, 0
x25b1,0x164c
  404 00000748 EA 14 93 
              21 34 33 
              B7 0B AE 
              24 09 17         DCW              0x14ea,0x2193, 0x3334,0x0bb7, 0
x24ae,0x1709
  405 00000754 4A 13 92 
              22 BF 32 
              1A 0C A9 
              23 C4 17         DCW              0x134a,0x2292, 0x32bf,0x0c1a, 0
x23a9,0x17c4
  406 00000760 A8 11 8E 
              23 49 32 
              7C 0C A3 
              22 7E 18         DCW              0x11a8,0x238e, 0x3249,0x0c7c, 0
x22a3,0x187e
  407 0000076C 05 10 88 
              24 D2 31 
              DF 0C 9C 
              21 37 19         DCW              0x1005,0x2488, 0x31d2,0x0cdf, 0
x219c,0x1937
  408 00000778 61 0E 7E 
              25 5B 31 
              41 0D 93 
              20 EF 19         DCW              0x0e61,0x257e, 0x315b,0x0d41, 0
x2093,0x19ef
  409 00000784 BB 0C 71 
              26 E4 30 
              A4 0D 89 
              1F A7 1A         DCW              0x0cbb,0x2671, 0x30e4,0x0da4, 0
x1f89,0x1aa7
  410 00000790 14 0B 60 
              27 6C 30 
              06 0E 7E 
              1E 5D 1B         DCW              0x0b14,0x2760, 0x306c,0x0e06, 0
x1e7e,0x1b5d
  411 0000079C 6D 09 4C 
              28 F4 2F 
              68 0E 72 
              1D 12 1C         DCW              0x096d,0x284c, 0x2ff4,0x0e68, 0
x1d72,0x1c12
  412 000007A8 C4 07 35 
              29 7B 2F 
              CA 0E 64 
              1C C6 1C         DCW              0x07c4,0x2935, 0x2f7b,0x0eca, 0
x1c64,0x1cc6
  413 000007B4 1B 06 1A 
              2A 02 2F 
              2B 0F 56 
              1B 79 1D         DCW              0x061b,0x2a1a, 0x2f02,0x0f2b, 0
x1b56,0x1d79
  414 000007C0 71 04 FB 
              2A 88 2E 
              8D 0F 46 
              1A 2B 1E         DCW              0x0471,0x2afb, 0x2e88,0x0f8d, 0
x1a46,0x1e2b
  415 000007CC C7 02 D8 
              2B 0E 2E 



ARM Macro Assembler    Page 20 


              EE 0F 35 
              19 DC 1E         DCW              0x02c7,0x2bd8, 0x2e0e,0x0fee, 0
x1935,0x1edc
  416 000007D8 1C 01 B2 
              2C 93 2D 
              50 10 24 
              18 8C 1F         DCW              0x011c,0x2cb2, 0x2d93,0x1050, 0
x1824,0x1f8c
  417 000007E4 72 FF 88 
              2D 18 2D 
              B1 10 11 
              17 3A 20         DCW              0xff72,0x2d88, 0x2d18,0x10b1, 0
x1711,0x203a
  418 000007F0 C7 FD 5A 
              2E 9D 2C 
              12 11 FE 
              15 E7 20         DCW              0xfdc7,0x2e5a, 0x2c9d,0x1112, 0
x15fe,0x20e7
  419 000007FC 1D FC 28 
              2F 21 2C 
              73 11 EA 
              14 93 21         DCW              0xfc1d,0x2f28, 0x2c21,0x1173, 0
x14ea,0x2193
  420 00000808 73 FA F2 
              2F A4 2B 
              D3 11 D5 
              13 3D 22         DCW              0xfa73,0x2ff2, 0x2ba4,0x11d3, 0
x13d5,0x223d
  421 00000814 CA F8 B8 
              30 28 2B 
              34 12 BF 
              12 E7 22         DCW              0xf8ca,0x30b8, 0x2b28,0x1234, 0
x12bf,0x22e7
  422 00000820 21 F7 79 
              31 AA 2A 
              94 12 A8 
              11 8E 23         DCW              0xf721,0x3179, 0x2aaa,0x1294, 0
x11a8,0x238e
  423 0000082C 79 F5 36 
              32 2D 2A 
              F4 12 91 
              10 35 24         DCW              0xf579,0x3236, 0x2a2d,0x12f4, 0
x1091,0x2435
  424 00000838 D2 F3 EF 
              32 AF 29 
              54 13 79 
              0F DA 24         DCW              0xf3d2,0x32ef, 0x29af,0x1354, 0
x0f79,0x24da
  425 00000844 2C F2 A3 
              33 31 29 
              B4 13 61 
              0E 7E 25         DCW              0xf22c,0x33a3, 0x2931,0x13b4, 0
x0e61,0x257e
  426 00000850 87 F0 53 
              34 B2 28 
              13 14 48 
              0D 20 26         DCW              0xf087,0x3453, 0x28b2,0x1413, 0
x0d48,0x2620
  427 0000085C E3 EE FF 



ARM Macro Assembler    Page 21 


              34 33 28 
              73 14 2E 
              0C C1 26         DCW              0xeee3,0x34ff, 0x2833,0x1473, 0
x0c2e,0x26c1
  428 00000868 41 ED A5 
              35 B3 27 
              D2 14 14 
              0B 60 27         DCW              0xed41,0x35a5, 0x27b3,0x14d2, 0
x0b14,0x2760
  429 00000874 A1 EB 48 
              36 33 27 
              31 15 FA 
              09 FE 27         DCW              0xeba1,0x3648, 0x2733,0x1531, 0
x09fa,0x27fe
  430 00000880 02 EA E5 
              36 B3 26 
              90 15 DF 
              08 9A 28         DCW              0xea02,0x36e5, 0x26b3,0x1590, 0
x08df,0x289a
  431 0000088C 65 E8 7E 
              37 32 26 
              EE 15 C4 
              07 35 29         DCW              0xe865,0x377e, 0x2632,0x15ee, 0
x07c4,0x2935
  432 00000898 CB E6 12 
              38 B1 25 
              4C 16 A9 
              06 CE 29         DCW              0xe6cb,0x3812, 0x25b1,0x164c, 0
x06a9,0x29ce
  433 000008A4 32 E5 A1 
              38 2F 25 
              AB 16 8D 
              05 65 2A         DCW              0xe532,0x38a1, 0x252f,0x16ab, 0
x058d,0x2a65
  434 000008B0 9C E3 2B 
              39 AE 24 
              09 17 71 
              04 FB 2A         DCW              0xe39c,0x392b, 0x24ae,0x1709, 0
x0471,0x2afb
  435 000008BC 08 E2 B0 
              39 2B 24 
              66 17 55 
              03 8F 2B         DCW              0xe208,0x39b0, 0x242b,0x1766, 0
x0355,0x2b8f
  436 000008C8 77 E0 30 
              3A A9 23 
              C4 17 39 
              02 21 2C         DCW              0xe077,0x3a30, 0x23a9,0x17c4, 0
x0239,0x2c21
  437 000008D4 E9 DE AB 
              3A 26 23 
              21 18 1C 
              01 B2 2C         DCW              0xdee9,0x3aab, 0x2326,0x1821, 0
x011c,0x2cb2
  438 000008E0 5D DD 21 
              3B A3 22 
              7E 18 00 
              00 41 2D         DCW              0xdd5d,0x3b21, 0x22a3,0x187e, 0
x0000,0x2d41



ARM Macro Assembler    Page 22 


  439 000008EC D5 DB 92 
              3B 1F 22 
              DB 18 E4 
              FE CF 2D         DCW              0xdbd5,0x3b92, 0x221f,0x18db, 0
xfee4,0x2dcf
  440 000008F8 4F DA FD 
              3B 9C 21 
              37 19 C7 
              FD 5A 2E         DCW              0xda4f,0x3bfd, 0x219c,0x1937, 0
xfdc7,0x2e5a
  441 00000904 CD D8 64 
              3C 17 21 
              93 19 AB 
              FC E4 2E         DCW              0xd8cd,0x3c64, 0x2117,0x1993, 0
xfcab,0x2ee4
  442 00000910 4E D7 C5 
              3C 93 20 
              EF 19 8F 
              FB 6C 2F         DCW              0xd74e,0x3cc5, 0x2093,0x19ef, 0
xfb8f,0x2f6c
  443 0000091C D3 D5 21 
              3D 0E 20 
              4B 1A 73 
              FA F2 2F         DCW              0xd5d3,0x3d21, 0x200e,0x1a4b, 0
xfa73,0x2ff2
  444 00000928 5C D4 78 
              3D 89 1F 
              A7 1A 57 
              F9 76 30         DCW              0xd45c,0x3d78, 0x1f89,0x1aa7, 0
xf957,0x3076
  445 00000934 E8 D2 C9 
              3D 04 1F 
              02 1B 3C 
              F8 F9 30         DCW              0xd2e8,0x3dc9, 0x1f04,0x1b02, 0
xf83c,0x30f9
  446 00000940 78 D1 15 
              3E 7E 1E 
              5D 1B 21 
              F7 79 31         DCW              0xd178,0x3e15, 0x1e7e,0x1b5d, 0
xf721,0x3179
  447 0000094C 0C D0 5C 
              3E F8 1D 
              B8 1B 06 
              F6 F8 31         DCW              0xd00c,0x3e5c, 0x1df8,0x1bb8, 0
xf606,0x31f8
  448 00000958 A5 CE 9D 
              3E 72 1D 
              12 1C EC 
              F4 74 32         DCW              0xcea5,0x3e9d, 0x1d72,0x1c12, 0
xf4ec,0x3274
  449 00000964 41 CD D8 
              3E EB 1C 
              6C 1C D2 
              F3 EF 32         DCW              0xcd41,0x3ed8, 0x1ceb,0x1c6c, 0
xf3d2,0x32ef
  450 00000970 E2 CB 0F 
              3F 64 1C 
              C6 1C B8 
              F2 68 33         DCW              0xcbe2,0x3f0f, 0x1c64,0x1cc6, 0



ARM Macro Assembler    Page 23 


xf2b8,0x3368
  451 0000097C 88 CA 40 
              3F DD 1B 
              20 1D 9F 
              F1 DF 33         DCW              0xca88,0x3f40, 0x1bdd,0x1d20, 0
xf19f,0x33df
  452 00000988 32 C9 6B 
              3F 56 1B 
              79 1D 87 
              F0 53 34         DCW              0xc932,0x3f6b, 0x1b56,0x1d79, 0
xf087,0x3453
  453 00000994 E1 C7 91 
              3F CE 1A 
              D3 1D 6F 
              EF C6 34         DCW              0xc7e1,0x3f91, 0x1ace,0x1dd3, 0
xef6f,0x34c6
  454 000009A0 95 C6 B1 
              3F 46 1A 
              2B 1E 58 
              EE 37 35         DCW              0xc695,0x3fb1, 0x1a46,0x1e2b, 0
xee58,0x3537
  455 000009AC 4E C5 CC 
              3F BE 19 
              84 1E 41 
              ED A5 35         DCW              0xc54e,0x3fcc, 0x19be,0x1e84, 0
xed41,0x35a5
  456 000009B8 0C C4 E1 
              3F 35 19 
              DC 1E 2B 
              EC 12 36         DCW              0xc40c,0x3fe1, 0x1935,0x1edc, 0
xec2b,0x3612
  457 000009C4 CF C2 F1 
              3F AD 18 
              34 1F 16 
              EB 7D 36         DCW              0xc2cf,0x3ff1, 0x18ad,0x1f34, 0
xeb16,0x367d
  458 000009D0 97 C1 FB 
              3F 24 18 
              8C 1F 02 
              EA E5 36         DCW              0xc197,0x3ffb, 0x1824,0x1f8c, 0
xea02,0x36e5
  459 000009DC 65 C0 00 
              40 9B 17 
              E3 1F EF 
              E8 4B 37         DCW              0xc065,0x4000, 0x179b,0x1fe3, 0
xe8ef,0x374b
  460 000009E8 38 BF FF 
              3F 11 17 
              3A 20 DC 
              E7 B0 37         DCW              0xbf38,0x3fff, 0x1711,0x203a, 0
xe7dc,0x37b0
  461 000009F4 11 BE F8 
              3F 88 16 
              91 20 CB 
              E6 12 38         DCW              0xbe11,0x3ff8, 0x1688,0x2091, 0
xe6cb,0x3812
  462 00000A00 F0 BC EC 
              3F FE 15 
              E7 20 BA 



ARM Macro Assembler    Page 24 


              E5 71 38         DCW              0xbcf0,0x3fec, 0x15fe,0x20e7, 0
xe5ba,0x3871
  463 00000A0C D4 BB DB 
              3F 74 15 
              3D 21 AA 
              E4 CF 38         DCW              0xbbd4,0x3fdb, 0x1574,0x213d, 0
xe4aa,0x38cf
  464 00000A18 BF BA C4 
              3F EA 14 
              93 21 9C 
              E3 2B 39         DCW              0xbabf,0x3fc4, 0x14ea,0x2193, 0
xe39c,0x392b
  465 00000A24 AF B9 A7 
              3F 5F 14 
              E8 21 8E 
              E2 84 39         DCW              0xb9af,0x3fa7, 0x145f,0x21e8, 0
xe28e,0x3984
  466 00000A30 A6 B8 85 
              3F D5 13 
              3D 22 82 
              E1 DB 39         DCW              0xb8a6,0x3f85, 0x13d5,0x223d, 0
xe182,0x39db
  467 00000A3C A2 B7 5D 
              3F 4A 13 
              92 22 77 
              E0 30 3A         DCW              0xb7a2,0x3f5d, 0x134a,0x2292, 0
xe077,0x3a30
  468 00000A48 A5 B6 30 
              3F BF 12 
              E7 22 6D 
              DF 82 3A         DCW              0xb6a5,0x3f30, 0x12bf,0x22e7, 0
xdf6d,0x3a82
  469 00000A54 AF B5 FD 
              3E 34 12 
              3B 23 64 
              DE D3 3A         DCW              0xb5af,0x3efd, 0x1234,0x233b, 0
xde64,0x3ad3
  470 00000A60 BE B4 C5 
              3E A8 11 
              8E 23 5D 
              DD 21 3B         DCW              0xb4be,0x3ec5, 0x11a8,0x238e, 0
xdd5d,0x3b21
  471 00000A6C D5 B3 88 
              3E 1D 11 
              E2 23 57 
              DC 6D 3B         DCW              0xb3d5,0x3e88, 0x111d,0x23e2, 0
xdc57,0x3b6d
  472 00000A78 F2 B2 45 
              3E 91 10 
              35 24 52 
              DB B6 3B         DCW              0xb2f2,0x3e45, 0x1091,0x2435, 0
xdb52,0x3bb6
  473 00000A84 15 B2 FC 
              3D 05 10 
              88 24 4F 
              DA FD 3B         DCW              0xb215,0x3dfc, 0x1005,0x2488, 0
xda4f,0x3bfd
  474 00000A90 40 B1 AF 
              3D 79 0F 



ARM Macro Assembler    Page 25 


              DA 24 4D 
              D9 42 3C         DCW              0xb140,0x3daf, 0x0f79,0x24da, 0
xd94d,0x3c42
  475 00000A9C 71 B0 5B 
              3D ED 0E 
              2C 25 4D 
              D8 85 3C         DCW              0xb071,0x3d5b, 0x0eed,0x252c, 0
xd84d,0x3c85
  476 00000AA8 A9 AF 03 
              3D 61 0E 
              7E 25 4E 
              D7 C5 3C         DCW              0xafa9,0x3d03, 0x0e61,0x257e, 0
xd74e,0x3cc5
  477 00000AB4 E8 AE A5 
              3C D4 0D 
              CF 25 51 
              D6 03 3D         DCW              0xaee8,0x3ca5, 0x0dd4,0x25cf, 0
xd651,0x3d03
  478 00000AC0 2E AE 42 
              3C 48 0D 
              20 26 56 
              D5 3F 3D         DCW              0xae2e,0x3c42, 0x0d48,0x2620, 0
xd556,0x3d3f
  479 00000ACC 7B AD DA 
              3B BB 0C 
              71 26 5C 
              D4 78 3D         DCW              0xad7b,0x3bda, 0x0cbb,0x2671, 0
xd45c,0x3d78
  480 00000AD8 D0 AC 6D 
              3B 2E 0C 
              C1 26 63 
              D3 AF 3D         DCW              0xacd0,0x3b6d, 0x0c2e,0x26c1, 0
xd363,0x3daf
  481 00000AE4 2B AC FA 
              3A A1 0B 
              11 27 6D 
              D2 E3 3D         DCW              0xac2b,0x3afa, 0x0ba1,0x2711, 0
xd26d,0x3de3
  482 00000AF0 8E AB 82 
              3A 14 0B 
              60 27 78 
              D1 15 3E         DCW              0xab8e,0x3a82, 0x0b14,0x2760, 0
xd178,0x3e15
  483 00000AFC F8 AA 06 
              3A 87 0A 
              AF 27 85 
              D0 45 3E         DCW              0xaaf8,0x3a06, 0x0a87,0x27af, 0
xd085,0x3e45
  484 00000B08 6A AA 84 
              39 FA 09 
              FE 27 94 
              CF 72 3E         DCW              0xaa6a,0x3984, 0x09fa,0x27fe, 0
xcf94,0x3e72
  485 00000B14 E3 A9 FD 
              38 6D 09 
              4C 28 A5 
              CE 9D 3E         DCW              0xa9e3,0x38fd, 0x096d,0x284c, 0
xcea5,0x3e9d
  486 00000B20 63 A9 71 



ARM Macro Assembler    Page 26 


              38 DF 08 
              9A 28 B7 
              CD C5 3E         DCW              0xa963,0x3871, 0x08df,0x289a, 0
xcdb7,0x3ec5
  487 00000B2C EB A8 E1 
              37 52 08 
              E7 28 CC 
              CC EB 3E         DCW              0xa8eb,0x37e1, 0x0852,0x28e7, 0
xcccc,0x3eeb
  488 00000B38 7B A8 4B 
              37 C4 07 
              35 29 E2 
              CB 0F 3F         DCW              0xa87b,0x374b, 0x07c4,0x2935, 0
xcbe2,0x3f0f
  489 00000B44 12 A8 B1 
              36 36 07 
              81 29 FB 
              CA 30 3F         DCW              0xa812,0x36b1, 0x0736,0x2981, 0
xcafb,0x3f30
  490 00000B50 B1 A7 12 
              36 A9 06 
              CE 29 15 
              CA 4F 3F         DCW              0xa7b1,0x3612, 0x06a9,0x29ce, 0
xca15,0x3f4f
  491 00000B5C 57 A7 6E 
              35 1B 06 
              1A 2A 32 
              C9 6B 3F         DCW              0xa757,0x356e, 0x061b,0x2a1a, 0
xc932,0x3f6b
  492 00000B68 05 A7 C6 
              34 8D 05 
              65 2A 51 
              C8 85 3F         DCW              0xa705,0x34c6, 0x058d,0x2a65, 0
xc851,0x3f85
  493 00000B74 BB A6 19 
              34 FF 04 
              B0 2A 72 
              C7 9C 3F         DCW              0xa6bb,0x3419, 0x04ff,0x2ab0, 0
xc772,0x3f9c
  494 00000B80 78 A6 68 
              33 71 04 
              FB 2A 95 
              C6 B1 3F         DCW              0xa678,0x3368, 0x0471,0x2afb, 0
xc695,0x3fb1
  495 00000B8C 3E A6 B2 
              32 E3 03 
              45 2B BA 
              C5 C4 3F         DCW              0xa63e,0x32b2, 0x03e3,0x2b45, 0
xc5ba,0x3fc4
  496 00000B98 0B A6 F8 
              31 55 03 
              8F 2B E2 
              C4 D4 3F         DCW              0xa60b,0x31f8, 0x0355,0x2b8f, 0
xc4e2,0x3fd4
  497 00000BA4 E0 A5 39 
              31 C7 02 
              D8 2B 0C 
              C4 E1 3F         DCW              0xa5e0,0x3139, 0x02c7,0x2bd8, 0
xc40c,0x3fe1



ARM Macro Assembler    Page 27 


  498 00000BB0 BC A5 76 
              30 39 02 
              21 2C 38 
              C3 EC 3F         DCW              0xa5bc,0x3076, 0x0239,0x2c21, 0
xc338,0x3fec
  499 00000BBC A1 A5 AF 
              2F AA 01 
              6A 2C 66 
              C2 F5 3F         DCW              0xa5a1,0x2faf, 0x01aa,0x2c6a, 0
xc266,0x3ff5
  500 00000BC8 8D A5 E4 
              2E 1C 01 
              B2 2C 97 
              C1 FB 3F         DCW              0xa58d,0x2ee4, 0x011c,0x2cb2, 0
xc197,0x3ffb
  501 00000BD4 81 A5 15 
              2E 8E 00 
              FA 2C CA 
              C0 FF 3F         DCW              0xa581,0x2e15, 0x008e,0x2cfa, 0
xc0ca,0x3fff
  502 00000BE0 7E A5 41 
              2D 00 00 
              41 2D 00 
              C0 00 40         DCW              0xa57e,0x2d41, 0x0000,0x2d41, 0
xc000,0x4000
  503 00000BEC 81 A5 6A 
              2C 72 FF 
              88 2D 38 
              BF FF 3F         DCW              0xa581,0x2c6a, 0xff72,0x2d88, 0
xbf38,0x3fff
  504 00000BF8 8D A5 8F 
              2B E4 FE 
              CF 2D 73 
              BE FB 3F         DCW              0xa58d,0x2b8f, 0xfee4,0x2dcf, 0
xbe73,0x3ffb
  505 00000C04 A1 A5 B0 
              2A 56 FE 
              15 2E B0 
              BD F5 3F         DCW              0xa5a1,0x2ab0, 0xfe56,0x2e15, 0
xbdb0,0x3ff5
  506 00000C10 BC A5 CE 
              29 C7 FD 
              5A 2E F0 
              BC EC 3F         DCW              0xa5bc,0x29ce, 0xfdc7,0x2e5a, 0
xbcf0,0x3fec
  507 00000C1C E0 A5 E7 
              28 39 FD 
              9F 2E 32 
              BC E1 3F         DCW              0xa5e0,0x28e7, 0xfd39,0x2e9f, 0
xbc32,0x3fe1
  508 00000C28 0B A6 FE 
              27 AB FC 
              E4 2E 77 
              BB D4 3F         DCW              0xa60b,0x27fe, 0xfcab,0x2ee4, 0
xbb77,0x3fd4
  509 00000C34 3E A6 11 
              27 1D FC 
              28 2F BF 
              BA C4 3F         DCW              0xa63e,0x2711, 0xfc1d,0x2f28, 0



ARM Macro Assembler    Page 28 


xbabf,0x3fc4
  510 00000C40 78 A6 20 
              26 8F FB 
              6C 2F 09 
              BA B1 3F         DCW              0xa678,0x2620, 0xfb8f,0x2f6c, 0
xba09,0x3fb1
  511 00000C4C BB A6 2C 
              25 01 FB 
              AF 2F 56 
              B9 9C 3F         DCW              0xa6bb,0x252c, 0xfb01,0x2faf, 0
xb956,0x3f9c
  512 00000C58 05 A7 35 
              24 73 FA 
              F2 2F A6 
              B8 85 3F         DCW              0xa705,0x2435, 0xfa73,0x2ff2, 0
xb8a6,0x3f85
  513 00000C64 57 A7 3B 
              23 E5 F9 
              34 30 F8 
              B7 6B 3F         DCW              0xa757,0x233b, 0xf9e5,0x3034, 0
xb7f8,0x3f6b
  514 00000C70 B1 A7 3D 
              22 57 F9 
              76 30 4D 
              B7 4F 3F         DCW              0xa7b1,0x223d, 0xf957,0x3076, 0
xb74d,0x3f4f
  515 00000C7C 12 A8 3D 
              21 CA F8 
              B8 30 A5 
              B6 30 3F         DCW              0xa812,0x213d, 0xf8ca,0x30b8, 0
xb6a5,0x3f30
  516 00000C88 7B A8 3A 
              20 3C F8 
              F9 30 00 
              B6 0F 3F         DCW              0xa87b,0x203a, 0xf83c,0x30f9, 0
xb600,0x3f0f
  517 00000C94 EB A8 34 
              1F AE F7 
              39 31 5E 
              B5 EB 3E         DCW              0xa8eb,0x1f34, 0xf7ae,0x3139, 0
xb55e,0x3eeb
  518 00000CA0 63 A9 2B 
              1E 21 F7 
              79 31 BE 
              B4 C5 3E         DCW              0xa963,0x1e2b, 0xf721,0x3179, 0
xb4be,0x3ec5
  519 00000CAC E3 A9 20 
              1D 93 F6 
              B9 31 22 
              B4 9D 3E         DCW              0xa9e3,0x1d20, 0xf693,0x31b9, 0
xb422,0x3e9d
  520 00000CB8 6A AA 12 
              1C 06 F6 
              F8 31 88 
              B3 72 3E         DCW              0xaa6a,0x1c12, 0xf606,0x31f8, 0
xb388,0x3e72
  521 00000CC4 F8 AA 02 
              1B 79 F5 
              36 32 F2 



ARM Macro Assembler    Page 29 


              B2 45 3E         DCW              0xaaf8,0x1b02, 0xf579,0x3236, 0
xb2f2,0x3e45
  522 00000CD0 8E AB EF 
              19 EC F4 
              74 32 5E 
              B2 15 3E         DCW              0xab8e,0x19ef, 0xf4ec,0x3274, 0
xb25e,0x3e15
  523 00000CDC 2B AC DB 
              18 5F F4 
              B2 32 CD 
              B1 E3 3D         DCW              0xac2b,0x18db, 0xf45f,0x32b2, 0
xb1cd,0x3de3
  524 00000CE8 D0 AC C4 
              17 D2 F3 
              EF 32 40 
              B1 AF 3D         DCW              0xacd0,0x17c4, 0xf3d2,0x32ef, 0
xb140,0x3daf
  525 00000CF4 7B AD AB 
              16 45 F3 
              2C 33 B5 
              B0 78 3D         DCW              0xad7b,0x16ab, 0xf345,0x332c, 0
xb0b5,0x3d78
  526 00000D00 2E AE 90 
              15 B8 F2 
              68 33 2D 
              B0 3F 3D         DCW              0xae2e,0x1590, 0xf2b8,0x3368, 0
xb02d,0x3d3f
  527 00000D0C E8 AE 73 
              14 2C F2 
              A3 33 A9 
              AF 03 3D         DCW              0xaee8,0x1473, 0xf22c,0x33a3, 0
xafa9,0x3d03
  528 00000D18 A9 AF 54 
              13 9F F1 
              DF 33 28 
              AF C5 3C         DCW              0xafa9,0x1354, 0xf19f,0x33df, 0
xaf28,0x3cc5
  529 00000D24 71 B0 34 
              12 13 F1 
              19 34 A9 
              AE 85 3C         DCW              0xb071,0x1234, 0xf113,0x3419, 0
xaea9,0x3c85
  530 00000D30 40 B1 12 
              11 87 F0 
              53 34 2E 
              AE 42 3C         DCW              0xb140,0x1112, 0xf087,0x3453, 0
xae2e,0x3c42
  531 00000D3C 15 B2 EE 
              0F FB EF 
              8D 34 B6 
              AD FD 3B         DCW              0xb215,0x0fee, 0xeffb,0x348d, 0
xadb6,0x3bfd
  532 00000D48 F2 B2 CA 
              0E 6F EF 
              C6 34 41 
              AD B6 3B         DCW              0xb2f2,0x0eca, 0xef6f,0x34c6, 0
xad41,0x3bb6
  533 00000D54 D5 B3 A4 
              0D E3 EE 



ARM Macro Assembler    Page 30 


              FF 34 D0 
              AC 6D 3B         DCW              0xb3d5,0x0da4, 0xeee3,0x34ff, 0
xacd0,0x3b6d
  534 00000D60 BE B4 7C 
              0C 58 EE 
              37 35 61 
              AC 21 3B         DCW              0xb4be,0x0c7c, 0xee58,0x3537, 0
xac61,0x3b21
  535 00000D6C AF B5 54 
              0B CC ED 
              6E 35 F6 
              AB D3 3A         DCW              0xb5af,0x0b54, 0xedcc,0x356e, 0
xabf6,0x3ad3
  536 00000D78 A5 B6 2B 
              0A 41 ED 
              A5 35 8E 
              AB 82 3A         DCW              0xb6a5,0x0a2b, 0xed41,0x35a5, 0
xab8e,0x3a82
  537 00000D84 A2 B7 01 
              09 B6 EC 
              DC 35 29 
              AB 30 3A         DCW              0xb7a2,0x0901, 0xecb6,0x35dc, 0
xab29,0x3a30
  538 00000D90 A6 B8 D6 
              07 2B EC 
              12 36 C8 
              AA DB 39         DCW              0xb8a6,0x07d6, 0xec2b,0x3612, 0
xaac8,0x39db
  539 00000D9C AF B9 AA 
              06 A1 EB 
              48 36 6A 
              AA 84 39         DCW              0xb9af,0x06aa, 0xeba1,0x3648, 0
xaa6a,0x3984
  540 00000DA8 BF BA 7E 
              05 16 EB 
              7D 36 0F 
              AA 2B 39         DCW              0xbabf,0x057e, 0xeb16,0x367d, 0
xaa0f,0x392b
  541 00000DB4 D4 BB 51 
              04 8C EA 
              B1 36 B7 
              A9 CF 38         DCW              0xbbd4,0x0451, 0xea8c,0x36b1, 0
xa9b7,0x38cf
  542 00000DC0 F0 BC 24 
              03 02 EA 
              E5 36 63 
              A9 71 38         DCW              0xbcf0,0x0324, 0xea02,0x36e5, 0
xa963,0x3871
  543 00000DCC 11 BE F7 
              01 78 E9 
              18 37 12 
              A9 12 38         DCW              0xbe11,0x01f7, 0xe978,0x3718, 0
xa912,0x3812
  544 00000DD8 38 BF C9 
              00 EF E8 
              4B 37 C5 
              A8 B0 37         DCW              0xbf38,0x00c9, 0xe8ef,0x374b, 0
xa8c5,0x37b0
  545 00000DE4 65 C0 9B 



ARM Macro Assembler    Page 31 


              FF 65 E8 
              7E 37 7B 
              A8 4B 37         DCW              0xc065,0xff9b, 0xe865,0x377e, 0
xa87b,0x374b
  546 00000DF0 97 C1 6E 
              FE DC E7 
              B0 37 34 
              A8 E5 36         DCW              0xc197,0xfe6e, 0xe7dc,0x37b0, 0
xa834,0x36e5
  547 00000DFC CF C2 40 
              FD 53 E7 
              E1 37 F1 
              A7 7D 36         DCW              0xc2cf,0xfd40, 0xe753,0x37e1, 0
xa7f1,0x367d
  548 00000E08 0C C4 13 
              FC CB E6 
              12 38 B1 
              A7 12 36         DCW              0xc40c,0xfc13, 0xe6cb,0x3812, 0
xa7b1,0x3612
  549 00000E14 4E C5 E6 
              FA 42 E6 
              42 38 74 
              A7 A5 35         DCW              0xc54e,0xfae6, 0xe642,0x3842, 0
xa774,0x35a5
  550 00000E20 95 C6 BA 
              F9 BA E5 
              71 38 3B 
              A7 37 35         DCW              0xc695,0xf9ba, 0xe5ba,0x3871, 0
xa73b,0x3537
  551 00000E2C E1 C7 8E 
              F8 32 E5 
              A1 38 05 
              A7 C6 34         DCW              0xc7e1,0xf88e, 0xe532,0x38a1, 0
xa705,0x34c6
  552 00000E38 32 C9 63 
              F7 AA E4 
              CF 38 D3 
              A6 53 34         DCW              0xc932,0xf763, 0xe4aa,0x38cf, 0
xa6d3,0x3453
  553 00000E44 88 CA 39 
              F6 23 E4 
              FD 38 A4 
              A6 DF 33         DCW              0xca88,0xf639, 0xe423,0x38fd, 0
xa6a4,0x33df
  554 00000E50 E2 CB 0F 
              F5 9C E3 
              2B 39 78 
              A6 68 33         DCW              0xcbe2,0xf50f, 0xe39c,0x392b, 0
xa678,0x3368
  555 00000E5C 41 CD E6 
              F3 15 E3 
              58 39 50 
              A6 EF 32         DCW              0xcd41,0xf3e6, 0xe315,0x3958, 0
xa650,0x32ef
  556 00000E68 A5 CE BF 
              F2 8E E2 
              84 39 2C 
              A6 74 32         DCW              0xcea5,0xf2bf, 0xe28e,0x3984, 0
xa62c,0x3274



ARM Macro Assembler    Page 32 


  557 00000E74 0C D0 98 
              F1 08 E2 
              B0 39 0B 
              A6 F8 31         DCW              0xd00c,0xf198, 0xe208,0x39b0, 0
xa60b,0x31f8
  558 00000E80 78 D1 73 
              F0 82 E1 
              DB 39 ED 
              A5 79 31         DCW              0xd178,0xf073, 0xe182,0x39db, 0
xa5ed,0x3179
  559 00000E8C E8 D2 4F 
              EF FC E0 
              06 3A D3 
              A5 F9 30         DCW              0xd2e8,0xef4f, 0xe0fc,0x3a06, 0
xa5d3,0x30f9
  560 00000E98 5C D4 2D 
              EE 77 E0 
              30 3A BC 
              A5 76 30         DCW              0xd45c,0xee2d, 0xe077,0x3a30, 0
xa5bc,0x3076
  561 00000EA4 D3 D5 0C 
              ED F2 DF 
              59 3A A9 
              A5 F2 2F         DCW              0xd5d3,0xed0c, 0xdff2,0x3a59, 0
xa5a9,0x2ff2
  562 00000EB0 4E D7 ED 
              EB 6D DF 
              82 3A 99 
              A5 6C 2F         DCW              0xd74e,0xebed, 0xdf6d,0x3a82, 0
xa599,0x2f6c
  563 00000EBC CD D8 CF 
              EA E9 DE 
              AB 3A 8D 
              A5 E4 2E         DCW              0xd8cd,0xeacf, 0xdee9,0x3aab, 0
xa58d,0x2ee4
  564 00000EC8 4F DA B4 
              E9 64 DE 
              D3 3A 85 
              A5 5A 2E         DCW              0xda4f,0xe9b4, 0xde64,0x3ad3, 0
xa585,0x2e5a
  565 00000ED4 D5 DB 9A 
              E8 E1 DD 
              FA 3A 7F 
              A5 CF 2D         DCW              0xdbd5,0xe89a, 0xdde1,0x3afa, 0
xa57f,0x2dcf
  566 00000EE0 5D DD 82 
              E7 5D DD 
              21 3B 7E 
              A5 41 2D         DCW              0xdd5d,0xe782, 0xdd5d,0x3b21, 0
xa57e,0x2d41
  567 00000EEC E9 DE 6D 
              E6 DA DC 
              47 3B 7F 
              A5 B2 2C         DCW              0xdee9,0xe66d, 0xdcda,0x3b47, 0
xa57f,0x2cb2
  568 00000EF8 77 E0 59 
              E5 57 DC 
              6D 3B 85 
              A5 21 2C         DCW              0xe077,0xe559, 0xdc57,0x3b6d, 0



ARM Macro Assembler    Page 33 


xa585,0x2c21
  569 00000F04 08 E2 48 
              E4 D5 DB 
              92 3B 8D 
              A5 8F 2B         DCW              0xe208,0xe448, 0xdbd5,0x3b92, 0
xa58d,0x2b8f
  570 00000F10 9C E3 3A 
              E3 52 DB 
              B6 3B 99 
              A5 FB 2A         DCW              0xe39c,0xe33a, 0xdb52,0x3bb6, 0
xa599,0x2afb
  571 00000F1C 32 E5 2D 
              E2 D1 DA 
              DA 3B A9 
              A5 65 2A         DCW              0xe532,0xe22d, 0xdad1,0x3bda, 0
xa5a9,0x2a65
  572 00000F28 CB E6 24 
              E1 4F DA 
              FD 3B BC 
              A5 CE 29         DCW              0xe6cb,0xe124, 0xda4f,0x3bfd, 0
xa5bc,0x29ce
  573 00000F34 65 E8 1D 
              E0 CE D9 
              20 3C D3 
              A5 35 29         DCW              0xe865,0xe01d, 0xd9ce,0x3c20, 0
xa5d3,0x2935
  574 00000F40 02 EA 19 
              DF 4D D9 
              42 3C ED 
              A5 9A 28         DCW              0xea02,0xdf19, 0xd94d,0x3c42, 0
xa5ed,0x289a
  575 00000F4C A1 EB 18 
              DE CD D8 
              64 3C 0B 
              A6 FE 27         DCW              0xeba1,0xde18, 0xd8cd,0x3c64, 0
xa60b,0x27fe
  576 00000F58 41 ED 19 
              DD 4D D8 
              85 3C 2C 
              A6 60 27         DCW              0xed41,0xdd19, 0xd84d,0x3c85, 0
xa62c,0x2760
  577 00000F64 E3 EE 1E 
              DC CD D7 
              A5 3C 50 
              A6 C1 26         DCW              0xeee3,0xdc1e, 0xd7cd,0x3ca5, 0
xa650,0x26c1
  578 00000F70 87 F0 26 
              DB 4E D7 
              C5 3C 78 
              A6 20 26         DCW              0xf087,0xdb26, 0xd74e,0x3cc5, 0
xa678,0x2620
  579 00000F7C 2C F2 31 
              DA CF D6 
              E4 3C A4 
              A6 7E 25         DCW              0xf22c,0xda31, 0xd6cf,0x3ce4, 0
xa6a4,0x257e
  580 00000F88 D2 F3 3F 
              D9 51 D6 
              03 3D D3 



ARM Macro Assembler    Page 34 


              A6 DA 24         DCW              0xf3d2,0xd93f, 0xd651,0x3d03, 0
xa6d3,0x24da
  581 00000F94 79 F5 51 
              D8 D3 D5 
              21 3D 05 
              A7 35 24         DCW              0xf579,0xd851, 0xd5d3,0x3d21, 0
xa705,0x2435
  582 00000FA0 21 F7 66 
              D7 56 D5 
              3F 3D 3B 
              A7 8E 23         DCW              0xf721,0xd766, 0xd556,0x3d3f, 0
xa73b,0x238e
  583 00000FAC CA F8 7F 
              D6 D8 D4 
              5B 3D 74 
              A7 E7 22         DCW              0xf8ca,0xd67f, 0xd4d8,0x3d5b, 0
xa774,0x22e7
  584 00000FB8 73 FA 9B 
              D5 5C D4 
              78 3D B1 
              A7 3D 22         DCW              0xfa73,0xd59b, 0xd45c,0x3d78, 0
xa7b1,0x223d
  585 00000FC4 1D FC BB 
              D4 DF D3 
              93 3D F1 
              A7 93 21         DCW              0xfc1d,0xd4bb, 0xd3df,0x3d93, 0
xa7f1,0x2193
  586 00000FD0 C7 FD DF 
              D3 63 D3 
              AF 3D 34 
              A8 E7 20         DCW              0xfdc7,0xd3df, 0xd363,0x3daf, 0
xa834,0x20e7
  587 00000FDC 72 FF 06 
              D3 E8 D2 
              C9 3D 7B 
              A8 3A 20         DCW              0xff72,0xd306, 0xd2e8,0x3dc9, 0
xa87b,0x203a
  588 00000FE8 1C 01 31 
              D2 6D D2 
              E3 3D C5 
              A8 8C 1F         DCW              0x011c,0xd231, 0xd26d,0x3de3, 0
xa8c5,0x1f8c
  589 00000FF4 C7 02 61 
              D1 F2 D1 
              FC 3D 12 
              A9 DC 1E         DCW              0x02c7,0xd161, 0xd1f2,0x3dfc, 0
xa912,0x1edc
  590 00001000 71 04 94 
              D0 78 D1 
              15 3E 63 
              A9 2B 1E         DCW              0x0471,0xd094, 0xd178,0x3e15, 0
xa963,0x1e2b
  591 0000100C 1B 06 CC 
              CF FE D0 
              2D 3E B7 
              A9 79 1D         DCW              0x061b,0xcfcc, 0xd0fe,0x3e2d, 0
xa9b7,0x1d79
  592 00001018 C4 07 07 
              CF 85 D0 



ARM Macro Assembler    Page 35 


              45 3E 0F 
              AA C6 1C         DCW              0x07c4,0xcf07, 0xd085,0x3e45, 0
xaa0f,0x1cc6
  593 00001024 6D 09 47 
              CE 0C D0 
              5C 3E 6A 
              AA 12 1C         DCW              0x096d,0xce47, 0xd00c,0x3e5c, 0
xaa6a,0x1c12
  594 00001030 14 0B 8C 
              CD 94 CF 
              72 3E C8 
              AA 5D 1B         DCW              0x0b14,0xcd8c, 0xcf94,0x3e72, 0
xaac8,0x1b5d
  595 0000103C BB 0C D4 
              CC 1C CF 
              88 3E 29 
              AB A7 1A         DCW              0x0cbb,0xccd4, 0xcf1c,0x3e88, 0
xab29,0x1aa7
  596 00001048 61 0E 21 
              CC A5 CE 
              9D 3E 8E 
              AB EF 19         DCW              0x0e61,0xcc21, 0xcea5,0x3e9d, 0
xab8e,0x19ef
  597 00001054 05 10 73 
              CB 2E CE 
              B1 3E F6 
              AB 37 19         DCW              0x1005,0xcb73, 0xce2e,0x3eb1, 0
xabf6,0x1937
  598 00001060 A8 11 C9 
              CA B7 CD 
              C5 3E 61 
              AC 7E 18         DCW              0x11a8,0xcac9, 0xcdb7,0x3ec5, 0
xac61,0x187e
  599 0000106C 4A 13 24 
              CA 41 CD 
              D8 3E D0 
              AC C4 17         DCW              0x134a,0xca24, 0xcd41,0x3ed8, 0
xacd0,0x17c4
  600 00001078 EA 14 83 
              C9 CC CC 
              EB 3E 41 
              AD 09 17         DCW              0x14ea,0xc983, 0xcccc,0x3eeb, 0
xad41,0x1709
  601 00001084 88 16 E8 
              C8 57 CC 
              FD 3E B6 
              AD 4C 16         DCW              0x1688,0xc8e8, 0xcc57,0x3efd, 0
xadb6,0x164c
  602 00001090 24 18 50 
              C8 E2 CB 
              0F 3F 2E 
              AE 90 15         DCW              0x1824,0xc850, 0xcbe2,0x3f0f, 0
xae2e,0x1590
  603 0000109C BE 19 BE 
              C7 6E CB 
              20 3F A9 
              AE D2 14         DCW              0x19be,0xc7be, 0xcb6e,0x3f20, 0
xaea9,0x14d2
  604 000010A8 56 1B 31 



ARM Macro Assembler    Page 36 


              C7 FB CA 
              30 3F 28 
              AF 13 14         DCW              0x1b56,0xc731, 0xcafb,0x3f30, 0
xaf28,0x1413
  605 000010B4 EB 1C A8 
              C6 88 CA 
              40 3F A9 
              AF 54 13         DCW              0x1ceb,0xc6a8, 0xca88,0x3f40, 0
xafa9,0x1354
  606 000010C0 7E 1E 25 
              C6 15 CA 
              4F 3F 2D 
              B0 94 12         DCW              0x1e7e,0xc625, 0xca15,0x3f4f, 0
xb02d,0x1294
  607 000010CC 0E 20 A7 
              C5 A3 C9 
              5D 3F B5 
              B0 D3 11         DCW              0x200e,0xc5a7, 0xc9a3,0x3f5d, 0
xb0b5,0x11d3
  608 000010D8 9C 21 2D 
              C5 32 C9 
              6B 3F 40 
              B1 12 11         DCW              0x219c,0xc52d, 0xc932,0x3f6b, 0
xb140,0x1112
  609 000010E4 26 23 B9 
              C4 C1 C8 
              78 3F CD 
              B1 50 10         DCW              0x2326,0xc4b9, 0xc8c1,0x3f78, 0
xb1cd,0x1050
  610 000010F0 AE 24 4A 
              C4 51 C8 
              85 3F 5E 
              B2 8D 0F         DCW              0x24ae,0xc44a, 0xc851,0x3f85, 0
xb25e,0x0f8d
  611 000010FC 32 26 E0 
              C3 E1 C7 
              91 3F F2 
              B2 CA 0E         DCW              0x2632,0xc3e0, 0xc7e1,0x3f91, 0
xb2f2,0x0eca
  612 00001108 B3 27 7B 
              C3 72 C7 
              9C 3F 88 
              B3 06 0E         DCW              0x27b3,0xc37b, 0xc772,0x3f9c, 0
xb388,0x0e06
  613 00001114 31 29 1C 
              C3 03 C7 
              A7 3F 22 
              B4 41 0D         DCW              0x2931,0xc31c, 0xc703,0x3fa7, 0
xb422,0x0d41
  614 00001120 AA 2A C1 
              C2 95 C6 
              B1 3F BE 
              B4 7C 0C         DCW              0x2aaa,0xc2c1, 0xc695,0x3fb1, 0
xb4be,0x0c7c
  615 0000112C 21 2C 6D 
              C2 27 C6 
              BB 3F 5E 
              B5 B7 0B         DCW              0x2c21,0xc26d, 0xc627,0x3fbb, 0
xb55e,0x0bb7



ARM Macro Assembler    Page 37 


  616 00001138 93 2D 1D 
              C2 BA C5 
              C4 3F 00 
              B6 F1 0A         DCW              0x2d93,0xc21d, 0xc5ba,0x3fc4, 0
xb600,0x0af1
  617 00001144 02 2F D3 
              C1 4E C5 
              CC 3F A5 
              B6 2B 0A         DCW              0x2f02,0xc1d3, 0xc54e,0x3fcc, 0
xb6a5,0x0a2b
  618 00001150 6C 30 8E 
              C1 E2 C4 
              D4 3F 4D 
              B7 64 09         DCW              0x306c,0xc18e, 0xc4e2,0x3fd4, 0
xb74d,0x0964
  619 0000115C D2 31 4F 
              C1 76 C4 
              DB 3F F8 
              B7 9D 08         DCW              0x31d2,0xc14f, 0xc476,0x3fdb, 0
xb7f8,0x089d
  620 00001168 34 33 15 
              C1 0C C4 
              E1 3F A6 
              B8 D6 07         DCW              0x3334,0xc115, 0xc40c,0x3fe1, 0
xb8a6,0x07d6
  621 00001174 92 34 E0 
              C0 A1 C3 
              E7 3F 56 
              B9 0E 07         DCW              0x3492,0xc0e0, 0xc3a1,0x3fe7, 0
xb956,0x070e
  622 00001180 EB 35 B1 
              C0 38 C3 
              EC 3F 09 
              BA 46 06         DCW              0x35eb,0xc0b1, 0xc338,0x3fec, 0
xba09,0x0646
  623 0000118C 3F 37 88 
              C0 CF C2 
              F1 3F BF 
              BA 7E 05         DCW              0x373f,0xc088, 0xc2cf,0x3ff1, 0
xbabf,0x057e
  624 00001198 8E 38 64 
              C0 66 C2 
              F5 3F 77 
              BB B5 04         DCW              0x388e,0xc064, 0xc266,0x3ff5, 0
xbb77,0x04b5
  625 000011A4 D9 39 45 
              C0 FE C1 
              F8 3F 32 
              BC ED 03         DCW              0x39d9,0xc045, 0xc1fe,0x3ff8, 0
xbc32,0x03ed
  626 000011B0 1E 3B 2C 
              C0 97 C1 
              FB 3F F0 
              BC 24 03         DCW              0x3b1e,0xc02c, 0xc197,0x3ffb, 0
xbcf0,0x0324
  627 000011BC 5F 3C 19 
              C0 30 C1 
              FD 3F B0 
              BD 5B 02         DCW              0x3c5f,0xc019, 0xc130,0x3ffd, 0



ARM Macro Assembler    Page 38 


xbdb0,0x025b
  628 000011C8 9A 3D 0B 
              C0 CA C0 
              FF 3F 73 
              BE 92 01         DCW              0x3d9a,0xc00b, 0xc0ca,0x3fff, 0
xbe73,0x0192
  629 000011D4 D0 3E 03 
              C0 65 C0 
              00 40 38 
              BF C9 00         DCW              0x3ed0,0xc003, 0xc065,0x4000, 0
xbf38,0x00c9
  630 000011E0         ; N=4096
  631 000011E0 00 40 00 
              00 00 40 
              00 00 00 
              40 00 00         DCW              0x4000,0x0000,0x4000,0x0000,0x4
000,0x0000
  632 000011EC B4 3F 4B 
              00 E7 3F 
              19 00 CD 
              3F 32 00         DCW              0x3FB4,0x004B,0x3FE7,0x0019,0x3
FCD,0x0032
  633 000011F8 68 3F 97 
              00 CD 3F 
              32 00 9B 
              3F 65 00         DCW              0x3F68,0x0097,0x3FCD,0x0032,0x3
F9B,0x0065
  634 00001204 1C 3F E2 
              00 B4 3F 
              4B 00 68 
              3F 97 00         DCW              0x3F1C,0x00E2,0x3FB4,0x004B,0x3
F68,0x0097
  635 00001210 CF 3E 2E 
              01 9B 3F 
              65 00 35 
              3F C9 00         DCW              0x3ECF,0x012E,0x3F9B,0x0065,0x3
F35,0x00C9
  636 0000121C 82 3E 79 
              01 82 3F 
              7E 00 02 
              3F FB 00         DCW              0x3E82,0x0179,0x3F82,0x007E,0x3
F02,0x00FB
  637 00001228 35 3E C4 
              01 68 3F 
              97 00 CF 
              3E 2E 01         DCW              0x3E35,0x01C4,0x3F68,0x0097,0x3
ECF,0x012E
  638 00001234 E7 3D 10 
              02 4F 3F 
              B0 00 9C 
              3E 60 01         DCW              0x3DE7,0x0210,0x3F4F,0x00B0,0x3
E9C,0x0160
  639 00001240 9A 3D 5B 
              02 35 3F 
              C9 00 69 
              3E 92 01         DCW              0x3D9A,0x025B,0x3F35,0x00C9,0x3
E69,0x0192
  640 0000124C 4B 3D A6 
              02 1C 3F 



ARM Macro Assembler    Page 39 


              E2 00 35 
              3E C4 01         DCW              0x3D4B,0x02A6,0x3F1C,0x00E2,0x3
E35,0x01C4
  641 00001258 FD 3C F2 
              02 02 3F 
              FB 00 01 
              3E F7 01         DCW              0x3CFD,0x02F2,0x3F02,0x00FB,0x3
E01,0x01F7
  642 00001264 AE 3C 3D 
              03 E9 3E 
              14 01 CE 
              3D 29 02         DCW              0x3CAE,0x033D,0x3EE9,0x0114,0x3
DCE,0x0229
  643 00001270 5E 3C 88 
              03 CF 3E 
              2E 01 9A 
              3D 5B 02         DCW              0x3C5E,0x0388,0x3ECF,0x012E,0x3
D9A,0x025B
  644 0000127C 0F 3C D4 
              03 B6 3E 
              47 01 65 
              3D 8D 02         DCW              0x3C0F,0x03D4,0x3EB6,0x0147,0x3
D65,0x028D
  645 00001288 BF 3B 1F 
              04 9C 3E 
              60 01 31 
              3D C0 02         DCW              0x3BBF,0x041F,0x3E9C,0x0160,0x3
D31,0x02C0
  646 00001294 6F 3B 6A 
              04 82 3E 
              79 01 FD 
              3C F2 02         DCW              0x3B6F,0x046A,0x3E82,0x0179,0x3
CFD,0x02F2
  647 000012A0 1E 3B B5 
              04 69 3E 
              92 01 C8 
              3C 24 03         DCW              0x3B1E,0x04B5,0x3E69,0x0192,0x3
CC8,0x0324
  648 000012AC CD 3A 00 
              05 4F 3E 
              AB 01 93 
              3C 56 03         DCW              0x3ACD,0x0500,0x3E4F,0x01AB,0x3
C93,0x0356
  649 000012B8 7C 3A 4C 
              05 35 3E 
              C4 01 5E 
              3C 88 03         DCW              0x3A7C,0x054C,0x3E35,0x01C4,0x3
C5E,0x0388
  650 000012C4 2A 3A 97 
              05 1B 3E 
              DD 01 29 
              3C BB 03         DCW              0x3A2A,0x0597,0x3E1B,0x01DD,0x3
C29,0x03BB
  651 000012D0 D9 39 E2 
              05 01 3E 
              F7 01 F4 
              3B ED 03         DCW              0x39D9,0x05E2,0x3E01,0x01F7,0x3
BF4,0x03ED
  652 000012DC 86 39 2D 



ARM Macro Assembler    Page 40 


              06 E7 3D 
              10 02 BF 
              3B 1F 04         DCW              0x3986,0x062D,0x3DE7,0x0210,0x3
BBF,0x041F
  653 000012E8 34 39 78 
              06 CE 3D 
              29 02 89 
              3B 51 04         DCW              0x3934,0x0678,0x3DCE,0x0229,0x3
B89,0x0451
  654 000012F4 E1 38 C3 
              06 B4 3D 
              42 02 54 
              3B 83 04         DCW              0x38E1,0x06C3,0x3DB4,0x0242,0x3
B54,0x0483
  655 00001300 8E 38 0E 
              07 9A 3D 
              5B 02 1E 
              3B B5 04         DCW              0x388E,0x070E,0x3D9A,0x025B,0x3
B1E,0x04B5
  656 0000130C 3B 38 59 
              07 7F 3D 
              74 02 E8 
              3A E7 04         DCW              0x383B,0x0759,0x3D7F,0x0274,0x3
AE8,0x04E7
  657 00001318 E7 37 A4 
              07 65 3D 
              8D 02 B2 
              3A 1A 05         DCW              0x37E7,0x07A4,0x3D65,0x028D,0x3
AB2,0x051A
  658 00001324 93 37 EF 
              07 4B 3D 
              A6 02 7C 
              3A 4C 05         DCW              0x3793,0x07EF,0x3D4B,0x02A6,0x3
A7C,0x054C
  659 00001330 3F 37 39 
              08 31 3D 
              C0 02 46 
              3A 7E 05         DCW              0x373F,0x0839,0x3D31,0x02C0,0x3
A46,0x057E
  660 0000133C EA 36 84 
              08 17 3D 
              D9 02 0F 
              3A B0 05         DCW              0x36EA,0x0884,0x3D17,0x02D9,0x3
A0F,0x05B0
  661 00001348 95 36 CF 
              08 FD 3C 
              F2 02 D9 
              39 E2 05         DCW              0x3695,0x08CF,0x3CFD,0x02F2,0x3
9D9,0x05E2
  662 00001354 40 36 19 
              09 E2 3C 
              0B 03 A2 
              39 14 06         DCW              0x3640,0x0919,0x3CE2,0x030B,0x3
9A2,0x0614
  663 00001360 EA 35 64 
              09 C8 3C 
              24 03 6B 
              39 46 06         DCW              0x35EA,0x0964,0x3CC8,0x0324,0x3
96B,0x0646



ARM Macro Assembler    Page 41 


  664 0000136C 95 35 AF 
              09 AE 3C 
              3D 03 34 
              39 78 06         DCW              0x3595,0x09AF,0x3CAE,0x033D,0x3
934,0x0678
  665 00001378 3E 35 F9 
              09 93 3C 
              56 03 FD 
              38 AA 06         DCW              0x353E,0x09F9,0x3C93,0x0356,0x3
8FD,0x06AA
  666 00001384 E8 34 44 
              0A 79 3C 
              6F 03 C5 
              38 DC 06         DCW              0x34E8,0x0A44,0x3C79,0x036F,0x3
8C5,0x06DC
  667 00001390 91 34 8E 
              0A 5E 3C 
              88 03 8E 
              38 0E 07         DCW              0x3491,0x0A8E,0x3C5E,0x0388,0x3
88E,0x070E
  668 0000139C 3B 34 D8 
              0A 44 3C 
              A1 03 56 
              38 40 07         DCW              0x343B,0x0AD8,0x3C44,0x03A1,0x3
856,0x0740
  669 000013A8 E3 33 23 
              0B 29 3C 
              BB 03 1F 
              38 72 07         DCW              0x33E3,0x0B23,0x3C29,0x03BB,0x3
81F,0x0772
  670 000013B4 8C 33 6D 
              0B 0F 3C 
              D4 03 E7 
              37 A4 07         DCW              0x338C,0x0B6D,0x3C0F,0x03D4,0x3
7E7,0x07A4
  671 000013C0 34 33 B7 
              0B F4 3B 
              ED 03 AF 
              37 D6 07         DCW              0x3334,0x0BB7,0x3BF4,0x03ED,0x3
7AF,0x07D6
  672 000013CC DC 32 01 
              0C DA 3B 
              06 04 77 
              37 07 08         DCW              0x32DC,0x0C01,0x3BDA,0x0406,0x3
777,0x0807
  673 000013D8 84 32 4B 
              0C BF 3B 
              1F 04 3F 
              37 39 08         DCW              0x3284,0x0C4B,0x3BBF,0x041F,0x3
73F,0x0839
  674 000013E4 2B 32 95 
              0C A4 3B 
              38 04 06 
              37 6B 08         DCW              0x322B,0x0C95,0x3BA4,0x0438,0x3
706,0x086B
  675 000013F0 D2 31 DF 
              0C 89 3B 
              51 04 CE 
              36 9D 08         DCW              0x31D2,0x0CDF,0x3B89,0x0451,0x3



ARM Macro Assembler    Page 42 


6CE,0x089D
  676 000013FC 79 31 29 
              0D 6F 3B 
              6A 04 95 
              36 CF 08         DCW              0x3179,0x0D29,0x3B6F,0x046A,0x3
695,0x08CF
  677 00001408 20 31 72 
              0D 54 3B 
              83 04 5C 
              36 01 09         DCW              0x3120,0x0D72,0x3B54,0x0483,0x3
65C,0x0901
  678 00001414 C6 30 BC 
              0D 39 3B 
              9C 04 23 
              36 32 09         DCW              0x30C6,0x0DBC,0x3B39,0x049C,0x3
623,0x0932
  679 00001420 6C 30 06 
              0E 1E 3B 
              B5 04 EA 
              35 64 09         DCW              0x306C,0x0E06,0x3B1E,0x04B5,0x3
5EA,0x0964
  680 0000142C 12 30 4F 
              0E 03 3B 
              CE 04 B1 
              35 96 09         DCW              0x3012,0x0E4F,0x3B03,0x04CE,0x3
5B1,0x0996
  681 00001438 B7 2F 99 
              0E E8 3A 
              E7 04 78 
              35 C7 09         DCW              0x2FB7,0x0E99,0x3AE8,0x04E7,0x3
578,0x09C7
  682 00001444 5C 2F E2 
              0E CD 3A 
              00 05 3E 
              35 F9 09         DCW              0x2F5C,0x0EE2,0x3ACD,0x0500,0x3
53E,0x09F9
  683 00001450 01 2F 2B 
              0F B2 3A 
              1A 05 05 
              35 2B 0A         DCW              0x2F01,0x0F2B,0x3AB2,0x051A,0x3
505,0x0A2B
  684 0000145C A6 2E 75 
              0F 97 3A 
              33 05 CB 
              34 5C 0A         DCW              0x2EA6,0x0F75,0x3A97,0x0533,0x3
4CB,0x0A5C
  685 00001468 4B 2E BE 
              0F 7C 3A 
              4C 05 91 
              34 8E 0A         DCW              0x2E4B,0x0FBE,0x3A7C,0x054C,0x3
491,0x0A8E
  686 00001474 EF 2D 07 
              10 61 3A 
              65 05 58 
              34 C0 0A         DCW              0x2DEF,0x1007,0x3A61,0x0565,0x3
458,0x0AC0
  687 00001480 93 2D 50 
              10 46 3A 
              7E 05 1D 



ARM Macro Assembler    Page 43 


              34 F1 0A         DCW              0x2D93,0x1050,0x3A46,0x057E,0x3
41D,0x0AF1
  688 0000148C 37 2D 99 
              10 2A 3A 
              97 05 E3 
              33 23 0B         DCW              0x2D37,0x1099,0x3A2A,0x0597,0x3
3E3,0x0B23
  689 00001498 DA 2C E1 
              10 0F 3A 
              B0 05 A9 
              33 54 0B         DCW              0x2CDA,0x10E1,0x3A0F,0x05B0,0x3
3A9,0x0B54
  690 000014A4 7E 2C 2A 
              11 F4 39 
              C9 05 6F 
              33 85 0B         DCW              0x2C7E,0x112A,0x39F4,0x05C9,0x3
36F,0x0B85
  691 000014B0 21 2C 73 
              11 D9 39 
              E2 05 34 
              33 B7 0B         DCW              0x2C21,0x1173,0x39D9,0x05E2,0x3
334,0x0BB7
  692 000014BC C3 2B BB 
              11 BD 39 
              FB 05 F9 
              32 E8 0B         DCW              0x2BC3,0x11BB,0x39BD,0x05FB,0x3
2F9,0x0BE8
  693 000014C8 66 2B 04 
              12 A2 39 
              14 06 BF 
              32 1A 0C         DCW              0x2B66,0x1204,0x39A2,0x0614,0x3
2BF,0x0C1A
  694 000014D4 08 2B 4C 
              12 86 39 
              2D 06 84 
              32 4B 0C         DCW              0x2B08,0x124C,0x3986,0x062D,0x3
284,0x0C4B
  695 000014E0 AA 2A 94 
              12 6B 39 
              46 06 49 
              32 7C 0C         DCW              0x2AAA,0x1294,0x396B,0x0646,0x3
249,0x0C7C
  696 000014EC 4C 2A DC 
              12 4F 39 
              5F 06 0D 
              32 AE 0C         DCW              0x2A4C,0x12DC,0x394F,0x065F,0x3
20D,0x0CAE
  697 000014F8 EE 29 24 
              13 34 39 
              78 06 D2 
              31 DF 0C         DCW              0x29EE,0x1324,0x3934,0x0678,0x3
1D2,0x0CDF
  698 00001504 8F 29 6C 
              13 18 39 
              91 06 97 
              31 10 0D         DCW              0x298F,0x136C,0x3918,0x0691,0x3
197,0x0D10
  699 00001510 30 29 B4 
              13 FD 38 



ARM Macro Assembler    Page 44 


              AA 06 5B 
              31 41 0D         DCW              0x2930,0x13B4,0x38FD,0x06AA,0x3
15B,0x0D41
  700 0000151C D1 28 FB 
              13 E1 38 
              C3 06 20 
              31 72 0D         DCW              0x28D1,0x13FB,0x38E1,0x06C3,0x3
120,0x0D72
  701 00001528 72 28 43 
              14 C5 38 
              DC 06 E4 
              30 A4 0D         DCW              0x2872,0x1443,0x38C5,0x06DC,0x3
0E4,0x0DA4
  702 00001534 12 28 8B 
              14 AA 38 
              F5 06 A8 
              30 D5 0D         DCW              0x2812,0x148B,0x38AA,0x06F5,0x3
0A8,0x0DD5
  703 00001540 B3 27 D2 
              14 8E 38 
              0E 07 6C 
              30 06 0E         DCW              0x27B3,0x14D2,0x388E,0x070E,0x3
06C,0x0E06
  704 0000154C 53 27 19 
              15 72 38 
              27 07 30 
              30 37 0E         DCW              0x2753,0x1519,0x3872,0x0727,0x3
030,0x0E37
  705 00001558 F3 26 60 
              15 56 38 
              40 07 F4 
              2F 68 0E         DCW              0x26F3,0x1560,0x3856,0x0740,0x2
FF4,0x0E68
  706 00001564 92 26 A7 
              15 3B 38 
              59 07 B7 
              2F 99 0E         DCW              0x2692,0x15A7,0x383B,0x0759,0x2
FB7,0x0E99
  707 00001570 32 26 EE 
              15 1F 38 
              72 07 7B 
              2F CA 0E         DCW              0x2632,0x15EE,0x381F,0x0772,0x2
F7B,0x0ECA
  708 0000157C D1 25 35 
              16 03 38 
              8B 07 3E 
              2F FB 0E         DCW              0x25D1,0x1635,0x3803,0x078B,0x2
F3E,0x0EFB
  709 00001588 70 25 7C 
              16 E7 37 
              A4 07 01 
              2F 2B 0F         DCW              0x2570,0x167C,0x37E7,0x07A4,0x2
F01,0x0F2B
  710 00001594 0F 25 C2 
              16 CB 37 
              BD 07 C5 
              2E 5C 0F         DCW              0x250F,0x16C2,0x37CB,0x07BD,0x2
EC5,0x0F5C
  711 000015A0 AD 24 09 



ARM Macro Assembler    Page 45 


              17 AF 37 
              D6 07 88 
              2E 8D 0F         DCW              0x24AD,0x1709,0x37AF,0x07D6,0x2
E88,0x0F8D
  712 000015AC 4C 24 4F 
              17 93 37 
              EF 07 4B 
              2E BE 0F         DCW              0x244C,0x174F,0x3793,0x07EF,0x2
E4B,0x0FBE
  713 000015B8 EA 23 95 
              17 77 37 
              07 08 0E 
              2E EE 0F         DCW              0x23EA,0x1795,0x3777,0x0807,0x2
E0E,0x0FEE
  714 000015C4 88 23 DB 
              17 5B 37 
              20 08 D0 
              2D 1F 10         DCW              0x2388,0x17DB,0x375B,0x0820,0x2
DD0,0x101F
  715 000015D0 26 23 21 
              18 3F 37 
              39 08 93 
              2D 50 10         DCW              0x2326,0x1821,0x373F,0x0839,0x2
D93,0x1050
  716 000015DC C4 22 67 
              18 22 37 
              52 08 56 
              2D 80 10         DCW              0x22C4,0x1867,0x3722,0x0852,0x2
D56,0x1080
  717 000015E8 61 22 AC 
              18 06 37 
              6B 08 18 
              2D B1 10         DCW              0x2261,0x18AC,0x3706,0x086B,0x2
D18,0x10B1
  718 000015F4 FE 21 F2 
              18 EA 36 
              84 08 DA 
              2C E1 10         DCW              0x21FE,0x18F2,0x36EA,0x0884,0x2
CDA,0x10E1
  719 00001600 9B 21 37 
              19 CE 36 
              9D 08 9C 
              2C 12 11         DCW              0x219B,0x1937,0x36CE,0x089D,0x2
C9C,0x1112
  720 0000160C 38 21 7C 
              19 B1 36 
              B6 08 5F 
              2C 42 11         DCW              0x2138,0x197C,0x36B1,0x08B6,0x2
C5F,0x1142
  721 00001618 D5 20 C1 
              19 95 36 
              CF 08 21 
              2C 73 11         DCW              0x20D5,0x19C1,0x3695,0x08CF,0x2
C21,0x1173
  722 00001624 72 20 06 
              1A 79 36 
              E8 08 E2 
              2B A3 11         DCW              0x2072,0x1A06,0x3679,0x08E8,0x2
BE2,0x11A3



ARM Macro Assembler    Page 46 


  723 00001630 0E 20 4B 
              1A 5C 36 
              01 09 A4 
              2B D3 11         DCW              0x200E,0x1A4B,0x365C,0x0901,0x2
BA4,0x11D3
  724 0000163C AA 1F 90 
              1A 40 36 
              19 09 66 
              2B 04 12         DCW              0x1FAA,0x1A90,0x3640,0x0919,0x2
B66,0x1204
  725 00001648 46 1F D4 
              1A 23 36 
              32 09 27 
              2B 34 12         DCW              0x1F46,0x1AD4,0x3623,0x0932,0x2
B27,0x1234
  726 00001654 E2 1E 19 
              1B 07 36 
              4B 09 E9 
              2A 64 12         DCW              0x1EE2,0x1B19,0x3607,0x094B,0x2
AE9,0x1264
  727 00001660 7E 1E 5D 
              1B EA 35 
              64 09 AA 
              2A 94 12         DCW              0x1E7E,0x1B5D,0x35EA,0x0964,0x2
AAA,0x1294
  728 0000166C 19 1E A1 
              1B CE 35 
              7D 09 6C 
              2A C4 12         DCW              0x1E19,0x1BA1,0x35CE,0x097D,0x2
A6C,0x12C4
  729 00001678 B5 1D E5 
              1B B1 35 
              96 09 2D 
              2A F4 12         DCW              0x1DB5,0x1BE5,0x35B1,0x0996,0x2
A2D,0x12F4
  730 00001684 50 1D 29 
              1C 95 35 
              AF 09 EE 
              29 24 13         DCW              0x1D50,0x1C29,0x3595,0x09AF,0x2
9EE,0x1324
  731 00001690 EB 1C 6C 
              1C 78 35 
              C7 09 AF 
              29 54 13         DCW              0x1CEB,0x1C6C,0x3578,0x09C7,0x2
9AF,0x1354
  732 0000169C 86 1C B0 
              1C 5B 35 
              E0 09 70 
              29 84 13         DCW              0x1C86,0x1CB0,0x355B,0x09E0,0x2
970,0x1384
  733 000016A8 20 1C F3 
              1C 3E 35 
              F9 09 30 
              29 B4 13         DCW              0x1C20,0x1CF3,0x353E,0x09F9,0x2
930,0x13B4
  734 000016B4 BB 1B 36 
              1D 22 35 
              12 0A F1 
              28 E4 13         DCW              0x1BBB,0x1D36,0x3522,0x0A12,0x2



ARM Macro Assembler    Page 47 


8F1,0x13E4
  735 000016C0 55 1B 79 
              1D 05 35 
              2B 0A B1 
              28 13 14         DCW              0x1B55,0x1D79,0x3505,0x0A2B,0x2
8B1,0x1413
  736 000016CC F0 1A BC 
              1D E8 34 
              44 0A 72 
              28 43 14         DCW              0x1AF0,0x1DBC,0x34E8,0x0A44,0x2
872,0x1443
  737 000016D8 8A 1A FF 
              1D CB 34 
              5C 0A 32 
              28 73 14         DCW              0x1A8A,0x1DFF,0x34CB,0x0A5C,0x2
832,0x1473
  738 000016E4 24 1A 42 
              1E AE 34 
              75 0A F3 
              27 A2 14         DCW              0x1A24,0x1E42,0x34AE,0x0A75,0x2
7F3,0x14A2
  739 000016F0 BE 19 84 
              1E 91 34 
              8E 0A B3 
              27 D2 14         DCW              0x19BE,0x1E84,0x3491,0x0A8E,0x2
7B3,0x14D2
  740 000016FC 57 19 C6 
              1E 75 34 
              A7 0A 73 
              27 01 15         DCW              0x1957,0x1EC6,0x3475,0x0AA7,0x2
773,0x1501
  741 00001708 F1 18 08 
              1F 58 34 
              C0 0A 33 
              27 31 15         DCW              0x18F1,0x1F08,0x3458,0x0AC0,0x2
733,0x1531
  742 00001714 8A 18 4A 
              1F 3B 34 
              D8 0A F3 
              26 60 15         DCW              0x188A,0x1F4A,0x343B,0x0AD8,0x2
6F3,0x1560
  743 00001720 24 18 8C 
              1F 1D 34 
              F1 0A B2 
              26 90 15         DCW              0x1824,0x1F8C,0x341D,0x0AF1,0x2
6B2,0x1590
  744 0000172C BD 17 CD 
              1F 00 34 
              0A 0B 72 
              26 BF 15         DCW              0x17BD,0x1FCD,0x3400,0x0B0A,0x2
672,0x15BF
  745 00001738 56 17 0F 
              20 E3 33 
              23 0B 32 
              26 EE 15         DCW              0x1756,0x200F,0x33E3,0x0B23,0x2
632,0x15EE
  746 00001744 EF 16 50 
              20 C6 33 
              3B 0B F1 



ARM Macro Assembler    Page 48 


              25 1D 16         DCW              0x16EF,0x2050,0x33C6,0x0B3B,0x2
5F1,0x161D
  747 00001750 88 16 91 
              20 A9 33 
              54 0B B1 
              25 4C 16         DCW              0x1688,0x2091,0x33A9,0x0B54,0x2
5B1,0x164C
  748 0000175C 20 16 D1 
              20 8C 33 
              6D 0B 70 
              25 7C 16         DCW              0x1620,0x20D1,0x338C,0x0B6D,0x2
570,0x167C
  749 00001768 B9 15 12 
              21 6F 33 
              85 0B 2F 
              25 AB 16         DCW              0x15B9,0x2112,0x336F,0x0B85,0x2
52F,0x16AB
  750 00001774 51 15 53 
              21 51 33 
              9E 0B EE 
              24 DA 16         DCW              0x1551,0x2153,0x3351,0x0B9E,0x2
4EE,0x16DA
  751 00001780 EA 14 93 
              21 34 33 
              B7 0B AD 
              24 09 17         DCW              0x14EA,0x2193,0x3334,0x0BB7,0x2
4AD,0x1709
  752 0000178C 82 14 D3 
              21 17 33 
              D0 0B 6C 
              24 37 17         DCW              0x1482,0x21D3,0x3317,0x0BD0,0x2
46C,0x1737
  753 00001798 1A 14 13 
              22 F9 32 
              E8 0B 2B 
              24 66 17         DCW              0x141A,0x2213,0x32F9,0x0BE8,0x2
42B,0x1766
  754 000017A4 B2 13 53 
              22 DC 32 
              01 0C EA 
              23 95 17         DCW              0x13B2,0x2253,0x32DC,0x0C01,0x2
3EA,0x1795
  755 000017B0 4A 13 92 
              22 BF 32 
              1A 0C A9 
              23 C4 17         DCW              0x134A,0x2292,0x32BF,0x0C1A,0x2
3A9,0x17C4
  756 000017BC E2 12 D2 
              22 A1 32 
              32 0C 67 
              23 F2 17         DCW              0x12E2,0x22D2,0x32A1,0x0C32,0x2
367,0x17F2
  757 000017C8 79 12 11 
              23 84 32 
              4B 0C 26 
              23 21 18         DCW              0x1279,0x2311,0x3284,0x0C4B,0x2
326,0x1821
  758 000017D4 11 12 50 
              23 66 32 



ARM Macro Assembler    Page 49 


              64 0C E4 
              22 4F 18         DCW              0x1211,0x2350,0x3266,0x0C64,0x2
2E4,0x184F
  759 000017E0 A8 11 8E 
              23 49 32 
              7C 0C A3 
              22 7E 18         DCW              0x11A8,0x238E,0x3249,0x0C7C,0x2
2A3,0x187E
  760 000017EC 40 11 CD 
              23 2B 32 
              95 0C 61 
              22 AC 18         DCW              0x1140,0x23CD,0x322B,0x0C95,0x2
261,0x18AC
  761 000017F8 D7 10 0B 
              24 0D 32 
              AE 0C 1F 
              22 DB 18         DCW              0x10D7,0x240B,0x320D,0x0CAE,0x2
21F,0x18DB
  762 00001804 6E 10 4A 
              24 F0 31 
              C6 0C DD 
              21 09 19         DCW              0x106E,0x244A,0x31F0,0x0CC6,0x2
1DD,0x1909
  763 00001810 05 10 88 
              24 D2 31 
              DF 0C 9B 
              21 37 19         DCW              0x1005,0x2488,0x31D2,0x0CDF,0x2
19B,0x1937
  764 0000181C 9C 0F C5 
              24 B4 31 
              F8 0C 59 
              21 65 19         DCW              0x0F9C,0x24C5,0x31B4,0x0CF8,0x2
159,0x1965
  765 00001828 33 0F 03 
              25 97 31 
              10 0D 17 
              21 93 19         DCW              0x0F33,0x2503,0x3197,0x0D10,0x2
117,0x1993
  766 00001834 CA 0E 41 
              25 79 31 
              29 0D D5 
              20 C1 19         DCW              0x0ECA,0x2541,0x3179,0x0D29,0x2
0D5,0x19C1
  767 00001840 61 0E 7E 
              25 5B 31 
              41 0D 93 
              20 EF 19         DCW              0x0E61,0x257E,0x315B,0x0D41,0x2
093,0x19EF
  768 0000184C F7 0D BB 
              25 3D 31 
              5A 0D 50 
              20 1D 1A         DCW              0x0DF7,0x25BB,0x313D,0x0D5A,0x2
050,0x1A1D
  769 00001858 8E 0D F8 
              25 20 31 
              72 0D 0E 
              20 4B 1A         DCW              0x0D8E,0x25F8,0x3120,0x0D72,0x2
00E,0x1A4B
  770 00001864 25 0D 34 



ARM Macro Assembler    Page 50 


              26 02 31 
              8B 0D CB 
              1F 79 1A         DCW              0x0D25,0x2634,0x3102,0x0D8B,0x1
FCB,0x1A79
  771 00001870 BB 0C 71 
              26 E4 30 
              A4 0D 89 
              1F A7 1A         DCW              0x0CBB,0x2671,0x30E4,0x0DA4,0x1
F89,0x1AA7
  772 0000187C 51 0C AD 
              26 C6 30 
              BC 0D 46 
              1F D4 1A         DCW              0x0C51,0x26AD,0x30C6,0x0DBC,0x1
F46,0x1AD4
  773 00001888 E8 0B E9 
              26 A8 30 
              D5 0D 03 
              1F 02 1B         DCW              0x0BE8,0x26E9,0x30A8,0x0DD5,0x1
F03,0x1B02
  774 00001894 7E 0B 24 
              27 8A 30 
              ED 0D C1 
              1E 30 1B         DCW              0x0B7E,0x2724,0x308A,0x0DED,0x1
EC1,0x1B30
  775 000018A0 14 0B 60 
              27 6C 30 
              06 0E 7E 
              1E 5D 1B         DCW              0x0B14,0x2760,0x306C,0x0E06,0x1
E7E,0x1B5D
  776 000018AC AA 0A 9B 
              27 4E 30 
              1E 0E 3B 
              1E 8A 1B         DCW              0x0AAA,0x279B,0x304E,0x0E1E,0x1
E3B,0x1B8A
  777 000018B8 40 0A D6 
              27 30 30 
              37 0E F8 
              1D B8 1B         DCW              0x0A40,0x27D6,0x3030,0x0E37,0x1
DF8,0x1BB8
  778 000018C4 D7 09 11 
              28 12 30 
              4F 0E B5 
              1D E5 1B         DCW              0x09D7,0x2811,0x3012,0x0E4F,0x1
DB5,0x1BE5
  779 000018D0 6C 09 4C 
              28 F4 2F 
              68 0E 71 
              1D 12 1C         DCW              0x096C,0x284C,0x2FF4,0x0E68,0x1
D71,0x1C12
  780 000018DC 02 09 86 
              28 D5 2F 
              80 0E 2E 
              1D 3F 1C         DCW              0x0902,0x2886,0x2FD5,0x0E80,0x1
D2E,0x1C3F
  781 000018E8 98 08 C1 
              28 B7 2F 
              99 0E EB 
              1C 6C 1C         DCW              0x0898,0x28C1,0x2FB7,0x0E99,0x1
CEB,0x1C6C



ARM Macro Assembler    Page 51 


  782 000018F4 2E 08 FB 
              28 99 2F 
              B1 0E A7 
              1C 99 1C         DCW              0x082E,0x28FB,0x2F99,0x0EB1,0x1
CA7,0x1C99
  783 00001900 C4 07 35 
              29 7B 2F 
              CA 0E 64 
              1C C6 1C         DCW              0x07C4,0x2935,0x2F7B,0x0ECA,0x1
C64,0x1CC6
  784 0000190C 5A 07 6E 
              29 5C 2F 
              E2 0E 20 
              1C F3 1C         DCW              0x075A,0x296E,0x2F5C,0x0EE2,0x1
C20,0x1CF3
  785 00001918 EF 06 A7 
              29 3E 2F 
              FB 0E DD 
              1B 20 1D         DCW              0x06EF,0x29A7,0x2F3E,0x0EFB,0x1
BDD,0x1D20
  786 00001924 85 06 E1 
              29 20 2F 
              13 0F 99 
              1B 4D 1D         DCW              0x0685,0x29E1,0x2F20,0x0F13,0x1
B99,0x1D4D
  787 00001930 1B 06 1A 
              2A 01 2F 
              2B 0F 55 
              1B 79 1D         DCW              0x061B,0x2A1A,0x2F01,0x0F2B,0x1
B55,0x1D79
  788 0000193C B0 05 52 
              2A E3 2E 
              44 0F 12 
              1B A6 1D         DCW              0x05B0,0x2A52,0x2EE3,0x0F44,0x1
B12,0x1DA6
  789 00001948 46 05 8B 
              2A C5 2E 
              5C 0F CE 
              1A D3 1D         DCW              0x0546,0x2A8B,0x2EC5,0x0F5C,0x1
ACE,0x1DD3
  790 00001954 DB 04 C3 
              2A A6 2E 
              75 0F 8A 
              1A FF 1D         DCW              0x04DB,0x2AC3,0x2EA6,0x0F75,0x1
A8A,0x1DFF
  791 00001960 71 04 FB 
              2A 88 2E 
              8D 0F 46 
              1A 2B 1E         DCW              0x0471,0x2AFB,0x2E88,0x0F8D,0x1
A46,0x1E2B
  792 0000196C 06 04 33 
              2B 69 2E 
              A5 0F 02 
              1A 58 1E         DCW              0x0406,0x2B33,0x2E69,0x0FA5,0x1
A02,0x1E58
  793 00001978 9C 03 6A 
              2B 4B 2E 
              BE 0F BE 
              19 84 1E         DCW              0x039C,0x2B6A,0x2E4B,0x0FBE,0x1



ARM Macro Assembler    Page 52 


9BE,0x1E84
  794 00001984 31 03 A1 
              2B 2C 2E 
              D6 0F 7A 
              19 B0 1E         DCW              0x0331,0x2BA1,0x2E2C,0x0FD6,0x1
97A,0x1EB0
  795 00001990 C7 02 D8 
              2B 0E 2E 
              EE 0F 35 
              19 DC 1E         DCW              0x02C7,0x2BD8,0x2E0E,0x0FEE,0x1
935,0x1EDC
  796 0000199C 5C 02 0F 
              2C EF 2D 
              07 10 F1 
              18 08 1F         DCW              0x025C,0x2C0F,0x2DEF,0x1007,0x1
8F1,0x1F08
  797 000019A8 F2 01 46 
              2C D0 2D 
              1F 10 AD 
              18 34 1F         DCW              0x01F2,0x2C46,0x2DD0,0x101F,0x1
8AD,0x1F34
  798 000019B4 87 01 7C 
              2C B2 2D 
              37 10 68 
              18 60 1F         DCW              0x0187,0x2C7C,0x2DB2,0x1037,0x1
868,0x1F60
  799 000019C0 1C 01 B2 
              2C 93 2D 
              50 10 24 
              18 8C 1F         DCW              0x011C,0x2CB2,0x2D93,0x1050,0x1
824,0x1F8C
  800 000019CC B2 00 E8 
              2C 74 2D 
              68 10 DF 
              17 B7 1F         DCW              0x00B2,0x2CE8,0x2D74,0x1068,0x1
7DF,0x1FB7
  801 000019D8 47 00 1E 
              2D 56 2D 
              80 10 9B 
              17 E3 1F         DCW              0x0047,0x2D1E,0x2D56,0x1080,0x1
79B,0x1FE3
  802 000019E4 DC FF 53 
              2D 37 2D 
              99 10 56 
              17 0F 20         DCW              0xFFDC,0x2D53,0x2D37,0x1099,0x1
756,0x200F
  803 000019F0 72 FF 88 
              2D 18 2D 
              B1 10 11 
              17 3A 20         DCW              0xFF72,0x2D88,0x2D18,0x10B1,0x1
711,0x203A
  804 000019FC 07 FF BD 
              2D F9 2C 
              C9 10 CC 
              16 65 20         DCW              0xFF07,0x2DBD,0x2CF9,0x10C9,0x1
6CC,0x2065
  805 00001A08 9D FE F2 
              2D DA 2C 
              E1 10 88 



ARM Macro Assembler    Page 53 


              16 91 20         DCW              0xFE9D,0x2DF2,0x2CDA,0x10E1,0x1
688,0x2091
  806 00001A14 32 FE 26 
              2E BB 2C 
              FA 10 43 
              16 BC 20         DCW              0xFE32,0x2E26,0x2CBB,0x10FA,0x1
643,0x20BC
  807 00001A20 C7 FD 5A 
              2E 9C 2C 
              12 11 FE 
              15 E7 20         DCW              0xFDC7,0x2E5A,0x2C9C,0x1112,0x1
5FE,0x20E7
  808 00001A2C 5D FD 8E 
              2E 7E 2C 
              2A 11 B9 
              15 12 21         DCW              0xFD5D,0x2E8E,0x2C7E,0x112A,0x1
5B9,0x2112
  809 00001A38 F2 FC C2 
              2E 5F 2C 
              42 11 74 
              15 3D 21         DCW              0xFCF2,0x2EC2,0x2C5F,0x1142,0x1
574,0x213D
  810 00001A44 88 FC F5 
              2E 40 2C 
              5A 11 2F 
              15 68 21         DCW              0xFC88,0x2EF5,0x2C40,0x115A,0x1
52F,0x2168
  811 00001A50 1D FC 28 
              2F 21 2C 
              73 11 EA 
              14 93 21         DCW              0xFC1D,0x2F28,0x2C21,0x1173,0x1
4EA,0x2193
  812 00001A5C B3 FB 5B 
              2F 01 2C 
              8B 11 A4 
              14 BE 21         DCW              0xFBB3,0x2F5B,0x2C01,0x118B,0x1
4A4,0x21BE
  813 00001A68 48 FB 8D 
              2F E2 2B 
              A3 11 5F 
              14 E8 21         DCW              0xFB48,0x2F8D,0x2BE2,0x11A3,0x1
45F,0x21E8
  814 00001A74 DE FA C0 
              2F C3 2B 
              BB 11 1A 
              14 13 22         DCW              0xFADE,0x2FC0,0x2BC3,0x11BB,0x1
41A,0x2213
  815 00001A80 73 FA F2 
              2F A4 2B 
              D3 11 D5 
              13 3D 22         DCW              0xFA73,0x2FF2,0x2BA4,0x11D3,0x1
3D5,0x223D
  816 00001A8C 09 FA 24 
              30 85 2B 
              EB 11 8F 
              13 68 22         DCW              0xFA09,0x3024,0x2B85,0x11EB,0x1
38F,0x2268
  817 00001A98 9E F9 55 
              30 66 2B 



ARM Macro Assembler    Page 54 


              04 12 4A 
              13 92 22         DCW              0xF99E,0x3055,0x2B66,0x1204,0x1
34A,0x2292
  818 00001AA4 34 F9 87 
              30 47 2B 
              1C 12 04 
              13 BC 22         DCW              0xF934,0x3087,0x2B47,0x121C,0x1
304,0x22BC
  819 00001AB0 CA F8 B8 
              30 27 2B 
              34 12 BF 
              12 E7 22         DCW              0xF8CA,0x30B8,0x2B27,0x1234,0x1
2BF,0x22E7
  820 00001ABC 5F F8 E8 
              30 08 2B 
              4C 12 79 
              12 11 23         DCW              0xF85F,0x30E8,0x2B08,0x124C,0x1
279,0x2311
  821 00001AC8 F5 F7 19 
              31 E9 2A 
              64 12 34 
              12 3B 23         DCW              0xF7F5,0x3119,0x2AE9,0x1264,0x1
234,0x233B
  822 00001AD4 8B F7 49 
              31 CA 2A 
              7C 12 EE 
              11 65 23         DCW              0xF78B,0x3149,0x2ACA,0x127C,0x1
1EE,0x2365
  823 00001AE0 21 F7 79 
              31 AA 2A 
              94 12 A8 
              11 8E 23         DCW              0xF721,0x3179,0x2AAA,0x1294,0x1
1A8,0x238E
  824 00001AEC B7 F6 A9 
              31 8B 2A 
              AC 12 63 
              11 B8 23         DCW              0xF6B7,0x31A9,0x2A8B,0x12AC,0x1
163,0x23B8
  825 00001AF8 4D F6 D8 
              31 6C 2A 
              C4 12 1D 
              11 E2 23         DCW              0xF64D,0x31D8,0x2A6C,0x12C4,0x1
11D,0x23E2
  826 00001B04 E3 F5 07 
              32 4C 2A 
              DC 12 D7 
              10 0B 24         DCW              0xF5E3,0x3207,0x2A4C,0x12DC,0x1
0D7,0x240B
  827 00001B10 79 F5 36 
              32 2D 2A 
              F4 12 91 
              10 35 24         DCW              0xF579,0x3236,0x2A2D,0x12F4,0x1
091,0x2435
  828 00001B1C 0F F5 65 
              32 0D 2A 
              0C 13 4B 
              10 5E 24         DCW              0xF50F,0x3265,0x2A0D,0x130C,0x1
04B,0x245E
  829 00001B28 A5 F4 93 



ARM Macro Assembler    Page 55 


              32 EE 29 
              24 13 05 
              10 88 24         DCW              0xF4A5,0x3293,0x29EE,0x1324,0x1
005,0x2488
  830 00001B34 3B F4 C1 
              32 CE 29 
              3C 13 BF 
              0F B1 24         DCW              0xF43B,0x32C1,0x29CE,0x133C,0x0
FBF,0x24B1
  831 00001B40 D2 F3 EF 
              32 AF 29 
              54 13 79 
              0F DA 24         DCW              0xF3D2,0x32EF,0x29AF,0x1354,0x0
F79,0x24DA
  832 00001B4C 68 F3 1D 
              33 8F 29 
              6C 13 33 
              0F 03 25         DCW              0xF368,0x331D,0x298F,0x136C,0x0
F33,0x2503
  833 00001B58 FF F2 4A 
              33 70 29 
              84 13 ED 
              0E 2C 25         DCW              0xF2FF,0x334A,0x2970,0x1384,0x0
EED,0x252C
  834 00001B64 95 F2 77 
              33 50 29 
              9C 13 A7 
              0E 55 25         DCW              0xF295,0x3377,0x2950,0x139C,0x0
EA7,0x2555
  835 00001B70 2C F2 A3 
              33 30 29 
              B4 13 61 
              0E 7E 25         DCW              0xF22C,0x33A3,0x2930,0x13B4,0x0
E61,0x257E
  836 00001B7C C2 F1 D0 
              33 11 29 
              CC 13 1B 
              0E A6 25         DCW              0xF1C2,0x33D0,0x2911,0x13CC,0x0
E1B,0x25A6
  837 00001B88 59 F1 FC 
              33 F1 28 
              E4 13 D4 
              0D CF 25         DCW              0xF159,0x33FC,0x28F1,0x13E4,0x0
DD4,0x25CF
  838 00001B94 F0 F0 28 
              34 D1 28 
              FB 13 8E 
              0D F8 25         DCW              0xF0F0,0x3428,0x28D1,0x13FB,0x0
D8E,0x25F8
  839 00001BA0 87 F0 53 
              34 B1 28 
              13 14 48 
              0D 20 26         DCW              0xF087,0x3453,0x28B1,0x1413,0x0
D48,0x2620
  840 00001BAC 1E F0 7F 
              34 92 28 
              2B 14 01 
              0D 48 26         DCW              0xF01E,0x347F,0x2892,0x142B,0x0
D01,0x2648



ARM Macro Assembler    Page 56 


  841 00001BB8 B5 EF AA 
              34 72 28 
              43 14 BB 
              0C 71 26         DCW              0xEFB5,0x34AA,0x2872,0x1443,0x0
CBB,0x2671
  842 00001BC4 4C EF D4 
              34 52 28 
              5B 14 75 
              0C 99 26         DCW              0xEF4C,0x34D4,0x2852,0x145B,0x0
C75,0x2699
  843 00001BD0 E3 EE FF 
              34 32 28 
              73 14 2E 
              0C C1 26         DCW              0xEEE3,0x34FF,0x2832,0x1473,0x0
C2E,0x26C1
  844 00001BDC 7B EE 29 
              35 12 28 
              8B 14 E8 
              0B E9 26         DCW              0xEE7B,0x3529,0x2812,0x148B,0x0
BE8,0x26E9
  845 00001BE8 12 EE 53 
              35 F3 27 
              A2 14 A1 
              0B 11 27         DCW              0xEE12,0x3553,0x27F3,0x14A2,0x0
BA1,0x2711
  846 00001BF4 AA ED 7C 
              35 D3 27 
              BA 14 5B 
              0B 38 27         DCW              0xEDAA,0x357C,0x27D3,0x14BA,0x0
B5B,0x2738
  847 00001C00 41 ED A5 
              35 B3 27 
              D2 14 14 
              0B 60 27         DCW              0xED41,0x35A5,0x27B3,0x14D2,0x0
B14,0x2760
  848 00001C0C D9 EC CE 
              35 93 27 
              EA 14 CE 
              0A 88 27         DCW              0xECD9,0x35CE,0x2793,0x14EA,0x0
ACE,0x2788
  849 00001C18 71 EC F7 
              35 73 27 
              01 15 87 
              0A AF 27         DCW              0xEC71,0x35F7,0x2773,0x1501,0x0
A87,0x27AF
  850 00001C24 09 EC 20 
              36 53 27 
              19 15 40 
              0A D6 27         DCW              0xEC09,0x3620,0x2753,0x1519,0x0
A40,0x27D6
  851 00001C30 A1 EB 48 
              36 33 27 
              31 15 FA 
              09 FE 27         DCW              0xEBA1,0x3648,0x2733,0x1531,0x0
9FA,0x27FE
  852 00001C3C 39 EB 6F 
              36 13 27 
              49 15 B3 
              09 25 28         DCW              0xEB39,0x366F,0x2713,0x1549,0x0



ARM Macro Assembler    Page 57 


9B3,0x2825
  853 00001C48 D1 EA 97 
              36 F3 26 
              60 15 6C 
              09 4C 28         DCW              0xEAD1,0x3697,0x26F3,0x1560,0x0
96C,0x284C
  854 00001C54 6A EA BE 
              36 D3 26 
              78 15 26 
              09 73 28         DCW              0xEA6A,0x36BE,0x26D3,0x1578,0x0
926,0x2873
  855 00001C60 02 EA E5 
              36 B2 26 
              90 15 DF 
              08 9A 28         DCW              0xEA02,0x36E5,0x26B2,0x1590,0x0
8DF,0x289A
  856 00001C6C 9B E9 0C 
              37 92 26 
              A7 15 98 
              08 C1 28         DCW              0xE99B,0x370C,0x2692,0x15A7,0x0
898,0x28C1
  857 00001C78 34 E9 32 
              37 72 26 
              BF 15 52 
              08 E7 28         DCW              0xE934,0x3732,0x2672,0x15BF,0x0
852,0x28E7
  858 00001C84 CC E8 58 
              37 52 26 
              D7 15 0B 
              08 0E 29         DCW              0xE8CC,0x3758,0x2652,0x15D7,0x0
80B,0x290E
  859 00001C90 65 E8 7E 
              37 32 26 
              EE 15 C4 
              07 35 29         DCW              0xE865,0x377E,0x2632,0x15EE,0x0
7C4,0x2935
  860 00001C9C FF E7 A3 
              37 12 26 
              06 16 7D 
              07 5B 29         DCW              0xE7FF,0x37A3,0x2612,0x1606,0x0
77D,0x295B
  861 00001CA8 98 E7 C8 
              37 F1 25 
              1D 16 36 
              07 81 29         DCW              0xE798,0x37C8,0x25F1,0x161D,0x0
736,0x2981
  862 00001CB4 31 E7 ED 
              37 D1 25 
              35 16 EF 
              06 A7 29         DCW              0xE731,0x37ED,0x25D1,0x1635,0x0
6EF,0x29A7
  863 00001CC0 CB E6 12 
              38 B1 25 
              4C 16 A8 
              06 CE 29         DCW              0xE6CB,0x3812,0x25B1,0x164C,0x0
6A8,0x29CE
  864 00001CCC 64 E6 36 
              38 90 25 
              64 16 62 



ARM Macro Assembler    Page 58 


              06 F4 29         DCW              0xE664,0x3836,0x2590,0x1664,0x0
662,0x29F4
  865 00001CD8 FE E5 5A 
              38 70 25 
              7C 16 1B 
              06 1A 2A         DCW              0xE5FE,0x385A,0x2570,0x167C,0x0
61B,0x2A1A
  866 00001CE4 98 E5 7D 
              38 50 25 
              93 16 D4 
              05 3F 2A         DCW              0xE598,0x387D,0x2550,0x1693,0x0
5D4,0x2A3F
  867 00001CF0 32 E5 A1 
              38 2F 25 
              AB 16 8D 
              05 65 2A         DCW              0xE532,0x38A1,0x252F,0x16AB,0x0
58D,0x2A65
  868 00001CFC CC E4 C3 
              38 0F 25 
              C2 16 46 
              05 8B 2A         DCW              0xE4CC,0x38C3,0x250F,0x16C2,0x0
546,0x2A8B
  869 00001D08 67 E4 E6 
              38 EE 24 
              DA 16 FF 
              04 B0 2A         DCW              0xE467,0x38E6,0x24EE,0x16DA,0x0
4FF,0x2AB0
  870 00001D14 01 E4 09 
              39 CE 24 
              F1 16 B8 
              04 D6 2A         DCW              0xE401,0x3909,0x24CE,0x16F1,0x0
4B8,0x2AD6
  871 00001D20 9C E3 2B 
              39 AD 24 
              09 17 71 
              04 FB 2A         DCW              0xE39C,0x392B,0x24AD,0x1709,0x0
471,0x2AFB
  872 00001D2C 37 E3 4C 
              39 8D 24 
              20 17 2A 
              04 20 2B         DCW              0xE337,0x394C,0x248D,0x1720,0x0
42A,0x2B20
  873 00001D38 D2 E2 6E 
              39 6C 24 
              37 17 E3 
              03 45 2B         DCW              0xE2D2,0x396E,0x246C,0x1737,0x0
3E3,0x2B45
  874 00001D44 6D E2 8F 
              39 4C 24 
              4F 17 9C 
              03 6A 2B         DCW              0xE26D,0x398F,0x244C,0x174F,0x0
39C,0x2B6A
  875 00001D50 08 E2 B0 
              39 2B 24 
              66 17 55 
              03 8F 2B         DCW              0xE208,0x39B0,0x242B,0x1766,0x0
355,0x2B8F
  876 00001D5C A4 E1 D0 
              39 0B 24 



ARM Macro Assembler    Page 59 


              7E 17 0E 
              03 B4 2B         DCW              0xE1A4,0x39D0,0x240B,0x177E,0x0
30E,0x2BB4
  877 00001D68 3F E1 F0 
              39 EA 23 
              95 17 C7 
              02 D8 2B         DCW              0xE13F,0x39F0,0x23EA,0x1795,0x0
2C7,0x2BD8
  878 00001D74 DB E0 10 
              3A C9 23 
              AC 17 80 
              02 FD 2B         DCW              0xE0DB,0x3A10,0x23C9,0x17AC,0x0
280,0x2BFD
  879 00001D80 77 E0 30 
              3A A9 23 
              C4 17 39 
              02 21 2C         DCW              0xE077,0x3A30,0x23A9,0x17C4,0x0
239,0x2C21
  880 00001D8C 13 E0 4F 
              3A 88 23 
              DB 17 F2 
              01 46 2C         DCW              0xE013,0x3A4F,0x2388,0x17DB,0x0
1F2,0x2C46
  881 00001D98 B0 DF 6E 
              3A 67 23 
              F2 17 AA 
              01 6A 2C         DCW              0xDFB0,0x3A6E,0x2367,0x17F2,0x0
1AA,0x2C6A
  882 00001DA4 4C DF 8D 
              3A 47 23 
              0A 18 63 
              01 8E 2C         DCW              0xDF4C,0x3A8D,0x2347,0x180A,0x0
163,0x2C8E
  883 00001DB0 E9 DE AB 
              3A 26 23 
              21 18 1C 
              01 B2 2C         DCW              0xDEE9,0x3AAB,0x2326,0x1821,0x0
11C,0x2CB2
  884 00001DBC 86 DE C9 
              3A 05 23 
              38 18 D5 
              00 D6 2C         DCW              0xDE86,0x3AC9,0x2305,0x1838,0x0
0D5,0x2CD6
  885 00001DC8 23 DE E6 
              3A E4 22 
              4F 18 8E 
              00 FA 2C         DCW              0xDE23,0x3AE6,0x22E4,0x184F,0x0
08E,0x2CFA
  886 00001DD4 C0 DD 04 
              3B C4 22 
              67 18 47 
              00 1E 2D         DCW              0xDDC0,0x3B04,0x22C4,0x1867,0x0
047,0x2D1E
  887 00001DE0 5D DD 21 
              3B A3 22 
              7E 18 00 
              00 41 2D         DCW              0xDD5D,0x3B21,0x22A3,0x187E,0x0
000,0x2D41
  888 00001DEC FB DC 3E 



ARM Macro Assembler    Page 60 


              3B 82 22 
              95 18 B9 
              FF 65 2D         DCW              0xDCFB,0x3B3E,0x2282,0x1895,0xF
FB9,0x2D65
  889 00001DF8 99 DC 5A 
              3B 61 22 
              AC 18 72 
              FF 88 2D         DCW              0xDC99,0x3B5A,0x2261,0x18AC,0xF
F72,0x2D88
  890 00001E04 37 DC 76 
              3B 40 22 
              C3 18 2B 
              FF AB 2D         DCW              0xDC37,0x3B76,0x2240,0x18C3,0xF
F2B,0x2DAB
  891 00001E10 D5 DB 92 
              3B 1F 22 
              DB 18 E4 
              FE CF 2D         DCW              0xDBD5,0x3B92,0x221F,0x18DB,0xF
EE4,0x2DCF
  892 00001E1C 73 DB AD 
              3B FE 21 
              F2 18 9D 
              FE F2 2D         DCW              0xDB73,0x3BAD,0x21FE,0x18F2,0xF
E9D,0x2DF2
  893 00001E28 12 DB C8 
              3B DD 21 
              09 19 56 
              FE 15 2E         DCW              0xDB12,0x3BC8,0x21DD,0x1909,0xF
E56,0x2E15
  894 00001E34 B0 DA E3 
              3B BC 21 
              20 19 0E 
              FE 37 2E         DCW              0xDAB0,0x3BE3,0x21BC,0x1920,0xF
E0E,0x2E37
  895 00001E40 4F DA FD 
              3B 9B 21 
              37 19 C7 
              FD 5A 2E         DCW              0xDA4F,0x3BFD,0x219B,0x1937,0xF
DC7,0x2E5A
  896 00001E4C EE D9 17 
              3C 7A 21 
              4E 19 80 
              FD 7D 2E         DCW              0xD9EE,0x3C17,0x217A,0x194E,0xF
D80,0x2E7D
  897 00001E58 8E D9 31 
              3C 59 21 
              65 19 39 
              FD 9F 2E         DCW              0xD98E,0x3C31,0x2159,0x1965,0xF
D39,0x2E9F
  898 00001E64 2D D9 4B 
              3C 38 21 
              7C 19 F2 
              FC C2 2E         DCW              0xD92D,0x3C4B,0x2138,0x197C,0xF
CF2,0x2EC2
  899 00001E70 CD D8 64 
              3C 17 21 
              93 19 AB 
              FC E4 2E         DCW              0xD8CD,0x3C64,0x2117,0x1993,0xF
CAB,0x2EE4



ARM Macro Assembler    Page 61 


  900 00001E7C 6D D8 7D 
              3C F6 20 
              AA 19 64 
              FC 06 2F         DCW              0xD86D,0x3C7D,0x20F6,0x19AA,0xF
C64,0x2F06
  901 00001E88 0D D8 95 
              3C D5 20 
              C1 19 1D 
              FC 28 2F         DCW              0xD80D,0x3C95,0x20D5,0x19C1,0xF
C1D,0x2F28
  902 00001E94 AE D7 AD 
              3C B4 20 
              D8 19 D6 
              FB 4A 2F         DCW              0xD7AE,0x3CAD,0x20B4,0x19D8,0xF
BD6,0x2F4A
  903 00001EA0 4F D7 C5 
              3C 93 20 
              EF 19 8F 
              FB 6C 2F         DCW              0xD74F,0x3CC5,0x2093,0x19EF,0xF
B8F,0x2F6C
  904 00001EAC EF D6 DD 
              3C 72 20 
              06 1A 48 
              FB 8D 2F         DCW              0xD6EF,0x3CDD,0x2072,0x1A06,0xF
B48,0x2F8D
  905 00001EB8 90 D6 F4 
              3C 50 20 
              1D 1A 01 
              FB AF 2F         DCW              0xD690,0x3CF4,0x2050,0x1A1D,0xF
B01,0x2FAF
  906 00001EC4 32 D6 0B 
              3D 2F 20 
              34 1A BA 
              FA D0 2F         DCW              0xD632,0x3D0B,0x202F,0x1A34,0xF
ABA,0x2FD0
  907 00001ED0 D3 D5 21 
              3D 0E 20 
              4B 1A 73 
              FA F2 2F         DCW              0xD5D3,0x3D21,0x200E,0x1A4B,0xF
A73,0x2FF2
  908 00001EDC 75 D5 37 
              3D ED 1F 
              62 1A 2C 
              FA 13 30         DCW              0xD575,0x3D37,0x1FED,0x1A62,0xF
A2C,0x3013
  909 00001EE8 17 D5 4D 
              3D CB 1F 
              79 1A E5 
              F9 34 30         DCW              0xD517,0x3D4D,0x1FCB,0x1A79,0xF
9E5,0x3034
  910 00001EF4 B9 D4 63 
              3D AA 1F 
              90 1A 9E 
              F9 55 30         DCW              0xD4B9,0x3D63,0x1FAA,0x1A90,0xF
99E,0x3055
  911 00001F00 5C D4 78 
              3D 89 1F 
              A7 1A 58 
              F9 76 30         DCW              0xD45C,0x3D78,0x1F89,0x1AA7,0xF



ARM Macro Assembler    Page 62 


958,0x3076
  912 00001F0C FF D3 8D 
              3D 68 1F 
              BE 1A 11 
              F9 97 30         DCW              0xD3FF,0x3D8D,0x1F68,0x1ABE,0xF
911,0x3097
  913 00001F18 A1 D3 A1 
              3D 46 1F 
              D4 1A CA 
              F8 B8 30         DCW              0xD3A1,0x3DA1,0x1F46,0x1AD4,0xF
8CA,0x30B8
  914 00001F24 45 D3 B5 
              3D 25 1F 
              EB 1A 83 
              F8 D8 30         DCW              0xD345,0x3DB5,0x1F25,0x1AEB,0xF
883,0x30D8
  915 00001F30 E8 D2 C9 
              3D 03 1F 
              02 1B 3C 
              F8 F9 30         DCW              0xD2E8,0x3DC9,0x1F03,0x1B02,0xF
83C,0x30F9
  916 00001F3C 8C D2 DD 
              3D E2 1E 
              19 1B F5 
              F7 19 31         DCW              0xD28C,0x3DDD,0x1EE2,0x1B19,0xF
7F5,0x3119
  917 00001F48 30 D2 F0 
              3D C1 1E 
              30 1B AE 
              F7 39 31         DCW              0xD230,0x3DF0,0x1EC1,0x1B30,0xF
7AE,0x3139
  918 00001F54 D4 D1 03 
              3E 9F 1E 
              46 1B 68 
              F7 59 31         DCW              0xD1D4,0x3E03,0x1E9F,0x1B46,0xF
768,0x3159
  919 00001F60 78 D1 15 
              3E 7E 1E 
              5D 1B 21 
              F7 79 31         DCW              0xD178,0x3E15,0x1E7E,0x1B5D,0xF
721,0x3179
  920 00001F6C 1D D1 27 
              3E 5C 1E 
              74 1B DA 
              F6 99 31         DCW              0xD11D,0x3E27,0x1E5C,0x1B74,0xF
6DA,0x3199
  921 00001F78 C2 D0 39 
              3E 3B 1E 
              8A 1B 94 
              F6 B9 31         DCW              0xD0C2,0x3E39,0x1E3B,0x1B8A,0xF
694,0x31B9
  922 00001F84 67 D0 4A 
              3E 19 1E 
              A1 1B 4D 
              F6 D8 31         DCW              0xD067,0x3E4A,0x1E19,0x1BA1,0xF
64D,0x31D8
  923 00001F90 0C D0 5C 
              3E F8 1D 
              B8 1B 06 



ARM Macro Assembler    Page 63 


              F6 F8 31         DCW              0xD00C,0x3E5C,0x1DF8,0x1BB8,0xF
606,0x31F8
  924 00001F9C B2 CF 6C 
              3E D6 1D 
              CE 1B C0 
              F5 17 32         DCW              0xCFB2,0x3E6C,0x1DD6,0x1BCE,0xF
5C0,0x3217
  925 00001FA8 58 CF 7D 
              3E B5 1D 
              E5 1B 79 
              F5 36 32         DCW              0xCF58,0x3E7D,0x1DB5,0x1BE5,0xF
579,0x3236
  926 00001FB4 FE CE 8D 
              3E 93 1D 
              FC 1B 32 
              F5 55 32         DCW              0xCEFE,0x3E8D,0x1D93,0x1BFC,0xF
532,0x3255
  927 00001FC0 A5 CE 9D 
              3E 71 1D 
              12 1C EC 
              F4 74 32         DCW              0xCEA5,0x3E9D,0x1D71,0x1C12,0xF
4EC,0x3274
  928 00001FCC 4C CE AC 
              3E 50 1D 
              29 1C A5 
              F4 93 32         DCW              0xCE4C,0x3EAC,0x1D50,0x1C29,0xF
4A5,0x3293
  929 00001FD8 F3 CD BB 
              3E 2E 1D 
              3F 1C 5F 
              F4 B2 32         DCW              0xCDF3,0x3EBB,0x1D2E,0x1C3F,0xF
45F,0x32B2
  930 00001FE4 9A CD CA 
              3E 0D 1D 
              56 1C 18 
              F4 D0 32         DCW              0xCD9A,0x3ECA,0x1D0D,0x1C56,0xF
418,0x32D0
  931 00001FF0 41 CD D8 
              3E EB 1C 
              6C 1C D2 
              F3 EF 32         DCW              0xCD41,0x3ED8,0x1CEB,0x1C6C,0xF
3D2,0x32EF
  932 00001FFC E9 CC E7 
              3E C9 1C 
              83 1C 8B 
              F3 0D 33         DCW              0xCCE9,0x3EE7,0x1CC9,0x1C83,0xF
38B,0x330D
  933 00002008 91 CC F4 
              3E A7 1C 
              99 1C 45 
              F3 2C 33         DCW              0xCC91,0x3EF4,0x1CA7,0x1C99,0xF
345,0x332C
  934 00002014 3A CC 02 
              3F 86 1C 
              B0 1C FF 
              F2 4A 33         DCW              0xCC3A,0x3F02,0x1C86,0x1CB0,0xF
2FF,0x334A
  935 00002020 E3 CB 0F 
              3F 64 1C 



ARM Macro Assembler    Page 64 


              C6 1C B8 
              F2 68 33         DCW              0xCBE3,0x3F0F,0x1C64,0x1CC6,0xF
2B8,0x3368
  936 0000202C 8B CB 1C 
              3F 42 1C 
              DD 1C 72 
              F2 86 33         DCW              0xCB8B,0x3F1C,0x1C42,0x1CDD,0xF
272,0x3386
  937 00002038 35 CB 28 
              3F 20 1C 
              F3 1C 2C 
              F2 A3 33         DCW              0xCB35,0x3F28,0x1C20,0x1CF3,0xF
22C,0x33A3
  938 00002044 DE CA 34 
              3F FF 1B 
              0A 1D E5 
              F1 C1 33         DCW              0xCADE,0x3F34,0x1BFF,0x1D0A,0xF
1E5,0x33C1
  939 00002050 88 CA 40 
              3F DD 1B 
              20 1D 9F 
              F1 DF 33         DCW              0xCA88,0x3F40,0x1BDD,0x1D20,0xF
19F,0x33DF
  940 0000205C 32 CA 4B 
              3F BB 1B 
              36 1D 59 
              F1 FC 33         DCW              0xCA32,0x3F4B,0x1BBB,0x1D36,0xF
159,0x33FC
  941 00002068 DD C9 56 
              3F 99 1B 
              4D 1D 13 
              F1 19 34         DCW              0xC9DD,0x3F56,0x1B99,0x1D4D,0xF
113,0x3419
  942 00002074 87 C9 61 
              3F 77 1B 
              63 1D CD 
              F0 36 34         DCW              0xC987,0x3F61,0x1B77,0x1D63,0xF
0CD,0x3436
  943 00002080 32 C9 6B 
              3F 55 1B 
              79 1D 87 
              F0 53 34         DCW              0xC932,0x3F6B,0x1B55,0x1D79,0xF
087,0x3453
  944 0000208C DE C8 75 
              3F 34 1B 
              90 1D 41 
              F0 70 34         DCW              0xC8DE,0x3F75,0x1B34,0x1D90,0xF
041,0x3470
  945 00002098 89 C8 7F 
              3F 12 1B 
              A6 1D FB 
              EF 8D 34         DCW              0xC889,0x3F7F,0x1B12,0x1DA6,0xE
FFB,0x348D
  946 000020A4 35 C8 88 
              3F F0 1A 
              BC 1D B5 
              EF AA 34         DCW              0xC835,0x3F88,0x1AF0,0x1DBC,0xE
FB5,0x34AA
  947 000020B0 E1 C7 91 



ARM Macro Assembler    Page 65 


              3F CE 1A 
              D3 1D 6F 
              EF C6 34         DCW              0xC7E1,0x3F91,0x1ACE,0x1DD3,0xE
F6F,0x34C6
  948 000020BC 8E C7 99 
              3F AC 1A 
              E9 1D 29 
              EF E2 34         DCW              0xC78E,0x3F99,0x1AAC,0x1DE9,0xE
F29,0x34E2
  949 000020C8 3B C7 A2 
              3F 8A 1A 
              FF 1D E3 
              EE FF 34         DCW              0xC73B,0x3FA2,0x1A8A,0x1DFF,0xE
EE3,0x34FF
  950 000020D4 E8 C6 AA 
              3F 68 1A 
              15 1E 9D 
              EE 1B 35         DCW              0xC6E8,0x3FAA,0x1A68,0x1E15,0xE
E9D,0x351B
  951 000020E0 95 C6 B1 
              3F 46 1A 
              2B 1E 58 
              EE 37 35         DCW              0xC695,0x3FB1,0x1A46,0x1E2B,0xE
E58,0x3537
  952 000020EC 43 C6 B8 
              3F 24 1A 
              42 1E 12 
              EE 53 35         DCW              0xC643,0x3FB8,0x1A24,0x1E42,0xE
E12,0x3553
  953 000020F8 F1 C5 BF 
              3F 02 1A 
              58 1E CC 
              ED 6E 35         DCW              0xC5F1,0x3FBF,0x1A02,0x1E58,0xE
DCC,0x356E
  954 00002104 9F C5 C6 
              3F E0 19 
              6E 1E 87 
              ED 8A 35         DCW              0xC59F,0x3FC6,0x19E0,0x1E6E,0xE
D87,0x358A
  955 00002110 4E C5 CC 
              3F BE 19 
              84 1E 41 
              ED A5 35         DCW              0xC54E,0x3FCC,0x19BE,0x1E84,0xE
D41,0x35A5
  956 0000211C FD C4 D2 
              3F 9C 19 
              9A 1E FC 
              EC C1 35         DCW              0xC4FD,0x3FD2,0x199C,0x1E9A,0xE
CFC,0x35C1
  957 00002128 AC C4 D7 
              3F 7A 19 
              B0 1E B6 
              EC DC 35         DCW              0xC4AC,0x3FD7,0x197A,0x1EB0,0xE
CB6,0x35DC
  958 00002134 5C C4 DC 
              3F 57 19 
              C6 1E 71 
              EC F7 35         DCW              0xC45C,0x3FDC,0x1957,0x1EC6,0xE
C71,0x35F7



ARM Macro Assembler    Page 66 


  959 00002140 0C C4 E1 
              3F 35 19 
              DC 1E 2B 
              EC 12 36         DCW              0xC40C,0x3FE1,0x1935,0x1EDC,0xE
C2B,0x3612
  960 0000214C BC C3 E6 
              3F 13 19 
              F2 1E E6 
              EB 2D 36         DCW              0xC3BC,0x3FE6,0x1913,0x1EF2,0xE
BE6,0x362D
  961 00002158 6D C3 EA 
              3F F1 18 
              08 1F A1 
              EB 48 36         DCW              0xC36D,0x3FEA,0x18F1,0x1F08,0xE
BA1,0x3648
  962 00002164 1E C3 ED 
              3F CF 18 
              1E 1F 5C 
              EB 62 36         DCW              0xC31E,0x3FED,0x18CF,0x1F1E,0xE
B5C,0x3662
  963 00002170 CF C2 F1 
              3F AD 18 
              34 1F 16 
              EB 7D 36         DCW              0xC2CF,0x3FF1,0x18AD,0x1F34,0xE
B16,0x367D
  964 0000217C 81 C2 F4 
              3F 8A 18 
              4A 1F D1 
              EA 97 36         DCW              0xC281,0x3FF4,0x188A,0x1F4A,0xE
AD1,0x3697
  965 00002188 32 C2 F7 
              3F 68 18 
              60 1F 8C 
              EA B1 36         DCW              0xC232,0x3FF7,0x1868,0x1F60,0xE
A8C,0x36B1
  966 00002194 E5 C1 F9 
              3F 46 18 
              76 1F 47 
              EA CB 36         DCW              0xC1E5,0x3FF9,0x1846,0x1F76,0xE
A47,0x36CB
  967 000021A0 97 C1 FB 
              3F 24 18 
              8C 1F 02 
              EA E5 36         DCW              0xC197,0x3FFB,0x1824,0x1F8C,0xE
A02,0x36E5
  968 000021AC 4A C1 FD 
              3F 01 18 
              A2 1F BD 
              E9 FF 36         DCW              0xC14A,0x3FFD,0x1801,0x1FA2,0xE
9BD,0x36FF
  969 000021B8 FE C0 FE 
              3F DF 17 
              B7 1F 78 
              E9 18 37         DCW              0xC0FE,0x3FFE,0x17DF,0x1FB7,0xE
978,0x3718
  970 000021C4 B1 C0 FF 
              3F BD 17 
              CD 1F 34 
              E9 32 37         DCW              0xC0B1,0x3FFF,0x17BD,0x1FCD,0xE



ARM Macro Assembler    Page 67 


934,0x3732
  971 000021D0 65 C0 00 
              40 9B 17 
              E3 1F EF 
              E8 4B 37         DCW              0xC065,0x4000,0x179B,0x1FE3,0xE
8EF,0x374B
  972 000021DC 19 C0 00 
              40 78 17 
              F9 1F AA 
              E8 65 37         DCW              0xC019,0x4000,0x1778,0x1FF9,0xE
8AA,0x3765
  973 000021E8 CE BF 00 
              40 56 17 
              0F 20 65 
              E8 7E 37         DCW              0xBFCE,0x4000,0x1756,0x200F,0xE
865,0x377E
  974 000021F4 83 BF 00 
              40 34 17 
              24 20 21 
              E8 97 37         DCW              0xBF83,0x4000,0x1734,0x2024,0xE
821,0x3797
  975 00002200 39 BF FF 
              3F 11 17 
              3A 20 DC 
              E7 B0 37         DCW              0xBF39,0x3FFF,0x1711,0x203A,0xE
7DC,0x37B0
  976 0000220C EE BE FE 
              3F EF 16 
              50 20 98 
              E7 C8 37         DCW              0xBEEE,0x3FFE,0x16EF,0x2050,0xE
798,0x37C8
  977 00002218 A4 BE FC 
              3F CC 16 
              65 20 53 
              E7 E1 37         DCW              0xBEA4,0x3FFC,0x16CC,0x2065,0xE
753,0x37E1
  978 00002224 5B BE FA 
              3F AA 16 
              7B 20 0F 
              E7 F9 37         DCW              0xBE5B,0x3FFA,0x16AA,0x207B,0xE
70F,0x37F9
  979 00002230 11 BE F8 
              3F 88 16 
              91 20 CB 
              E6 12 38         DCW              0xBE11,0x3FF8,0x1688,0x2091,0xE
6CB,0x3812
  980 0000223C C9 BD F6 
              3F 65 16 
              A6 20 86 
              E6 2A 38         DCW              0xBDC9,0x3FF6,0x1665,0x20A6,0xE
686,0x382A
  981 00002248 80 BD F3 
              3F 43 16 
              BC 20 42 
              E6 42 38         DCW              0xBD80,0x3FF3,0x1643,0x20BC,0xE
642,0x3842
  982 00002254 38 BD F0 
              3F 20 16 
              D1 20 FE 



ARM Macro Assembler    Page 68 


              E5 5A 38         DCW              0xBD38,0x3FF0,0x1620,0x20D1,0xE
5FE,0x385A
  983 00002260 F0 BC EC 
              3F FE 15 
              E7 20 BA 
              E5 71 38         DCW              0xBCF0,0x3FEC,0x15FE,0x20E7,0xE
5BA,0x3871
  984 0000226C A9 BC E8 
              3F DB 15 
              FD 20 76 
              E5 89 38         DCW              0xBCA9,0x3FE8,0x15DB,0x20FD,0xE
576,0x3889
  985 00002278 62 BC E4 
              3F B9 15 
              12 21 32 
              E5 A1 38         DCW              0xBC62,0x3FE4,0x15B9,0x2112,0xE
532,0x38A1
  986 00002284 1B BC E0 
              3F 96 15 
              28 21 EE 
              E4 B8 38         DCW              0xBC1B,0x3FE0,0x1596,0x2128,0xE
4EE,0x38B8
  987 00002290 D5 BB DB 
              3F 74 15 
              3D 21 AB 
              E4 CF 38         DCW              0xBBD5,0x3FDB,0x1574,0x213D,0xE
4AB,0x38CF
  988 0000229C 8F BB D5 
              3F 51 15 
              53 21 67 
              E4 E6 38         DCW              0xBB8F,0x3FD5,0x1551,0x2153,0xE
467,0x38E6
  989 000022A8 49 BB D0 
              3F 2F 15 
              68 21 23 
              E4 FD 38         DCW              0xBB49,0x3FD0,0x152F,0x2168,0xE
423,0x38FD
  990 000022B4 04 BB CA 
              3F 0C 15 
              7D 21 E0 
              E3 14 39         DCW              0xBB04,0x3FCA,0x150C,0x217D,0xE
3E0,0x3914
  991 000022C0 BF BA C4 
              3F EA 14 
              93 21 9C 
              E3 2B 39         DCW              0xBABF,0x3FC4,0x14EA,0x2193,0xE
39C,0x392B
  992 000022CC 7B BA BD 
              3F C7 14 
              A8 21 59 
              E3 41 39         DCW              0xBA7B,0x3FBD,0x14C7,0x21A8,0xE
359,0x3941
  993 000022D8 37 BA B6 
              3F A4 14 
              BE 21 15 
              E3 58 39         DCW              0xBA37,0x3FB6,0x14A4,0x21BE,0xE
315,0x3958
  994 000022E4 F3 B9 AF 
              3F 82 14 



ARM Macro Assembler    Page 69 


              D3 21 D2 
              E2 6E 39         DCW              0xB9F3,0x3FAF,0x1482,0x21D3,0xE
2D2,0x396E
  995 000022F0 AF B9 A7 
              3F 5F 14 
              E8 21 8F 
              E2 84 39         DCW              0xB9AF,0x3FA7,0x145F,0x21E8,0xE
28F,0x3984
  996 000022FC 6D B9 9F 
              3F 3D 14 
              FE 21 4B 
              E2 9A 39         DCW              0xB96D,0x3F9F,0x143D,0x21FE,0xE
24B,0x399A
  997 00002308 2A B9 97 
              3F 1A 14 
              13 22 08 
              E2 B0 39         DCW              0xB92A,0x3F97,0x141A,0x2213,0xE
208,0x39B0
  998 00002314 E8 B8 8E 
              3F F7 13 
              28 22 C5 
              E1 C5 39         DCW              0xB8E8,0x3F8E,0x13F7,0x2228,0xE
1C5,0x39C5
  999 00002320 A6 B8 85 
              3F D5 13 
              3D 22 82 
              E1 DB 39         DCW              0xB8A6,0x3F85,0x13D5,0x223D,0xE
182,0x39DB
 1000 0000232C 65 B8 7B 
              3F B2 13 
              53 22 3F 
              E1 F0 39         DCW              0xB865,0x3F7B,0x13B2,0x2253,0xE
13F,0x39F0
 1001 00002338 24 B8 72 
              3F 8F 13 
              68 22 FD 
              E0 06 3A         DCW              0xB824,0x3F72,0x138F,0x2268,0xE
0FD,0x3A06
 1002 00002344 E3 B7 68 
              3F 6C 13 
              7D 22 BA 
              E0 1B 3A         DCW              0xB7E3,0x3F68,0x136C,0x227D,0xE
0BA,0x3A1B
 1003 00002350 A3 B7 5D 
              3F 4A 13 
              92 22 77 
              E0 30 3A         DCW              0xB7A3,0x3F5D,0x134A,0x2292,0xE
077,0x3A30
 1004 0000235C 63 B7 52 
              3F 27 13 
              A7 22 35 
              E0 45 3A         DCW              0xB763,0x3F52,0x1327,0x22A7,0xE
035,0x3A45
 1005 00002368 23 B7 47 
              3F 04 13 
              BC 22 F2 
              DF 59 3A         DCW              0xB723,0x3F47,0x1304,0x22BC,0xD
FF2,0x3A59
 1006 00002374 E4 B6 3C 



ARM Macro Assembler    Page 70 


              3F E2 12 
              D2 22 B0 
              DF 6E 3A         DCW              0xB6E4,0x3F3C,0x12E2,0x22D2,0xD
FB0,0x3A6E
 1007 00002380 A6 B6 30 
              3F BF 12 
              E7 22 6D 
              DF 82 3A         DCW              0xB6A6,0x3F30,0x12BF,0x22E7,0xD
F6D,0x3A82
 1008 0000238C 67 B6 24 
              3F 9C 12 
              FC 22 2B 
              DF 97 3A         DCW              0xB667,0x3F24,0x129C,0x22FC,0xD
F2B,0x3A97
 1009 00002398 2A B6 17 
              3F 79 12 
              11 23 E9 
              DE AB 3A         DCW              0xB62A,0x3F17,0x1279,0x2311,0xD
EE9,0x3AAB
 1010 000023A4 EC B5 0A 
              3F 56 12 
              26 23 A7 
              DE BF 3A         DCW              0xB5EC,0x3F0A,0x1256,0x2326,0xD
EA7,0x3ABF
 1011 000023B0 AF B5 FD 
              3E 34 12 
              3B 23 65 
              DE D3 3A         DCW              0xB5AF,0x3EFD,0x1234,0x233B,0xD
E65,0x3AD3
 1012 000023BC 72 B5 F0 
              3E 11 12 
              50 23 23 
              DE E6 3A         DCW              0xB572,0x3EF0,0x1211,0x2350,0xD
E23,0x3AE6
 1013 000023C8 36 B5 E2 
              3E EE 11 
              65 23 E1 
              DD FA 3A         DCW              0xB536,0x3EE2,0x11EE,0x2365,0xD
DE1,0x3AFA
 1014 000023D4 FA B4 D4 
              3E CB 11 
              7A 23 9F 
              DD 0E 3B         DCW              0xB4FA,0x3ED4,0x11CB,0x237A,0xD
D9F,0x3B0E
 1015 000023E0 BF B4 C5 
              3E A8 11 
              8E 23 5D 
              DD 21 3B         DCW              0xB4BF,0x3EC5,0x11A8,0x238E,0xD
D5D,0x3B21
 1016 000023EC 84 B4 B6 
              3E 85 11 
              A3 23 1C 
              DD 34 3B         DCW              0xB484,0x3EB6,0x1185,0x23A3,0xD
D1C,0x3B34
 1017 000023F8 49 B4 A7 
              3E 63 11 
              B8 23 DA 
              DC 47 3B         DCW              0xB449,0x3EA7,0x1163,0x23B8,0xD
CDA,0x3B47



ARM Macro Assembler    Page 71 


 1018 00002404 0F B4 98 
              3E 40 11 
              CD 23 99 
              DC 5A 3B         DCW              0xB40F,0x3E98,0x1140,0x23CD,0xD
C99,0x3B5A
 1019 00002410 D5 B3 88 
              3E 1D 11 
              E2 23 57 
              DC 6D 3B         DCW              0xB3D5,0x3E88,0x111D,0x23E2,0xD
C57,0x3B6D
 1020 0000241C 9C B3 77 
              3E FA 10 
              F7 23 16 
              DC 7F 3B         DCW              0xB39C,0x3E77,0x10FA,0x23F7,0xD
C16,0x3B7F
 1021 00002428 63 B3 67 
              3E D7 10 
              0B 24 D5 
              DB 92 3B         DCW              0xB363,0x3E67,0x10D7,0x240B,0xD
BD5,0x3B92
 1022 00002434 2A B3 56 
              3E B4 10 
              20 24 94 
              DB A4 3B         DCW              0xB32A,0x3E56,0x10B4,0x2420,0xD
B94,0x3BA4
 1023 00002440 F2 B2 45 
              3E 91 10 
              35 24 53 
              DB B6 3B         DCW              0xB2F2,0x3E45,0x1091,0x2435,0xD
B53,0x3BB6
 1024 0000244C BA B2 33 
              3E 6E 10 
              4A 24 12 
              DB C8 3B         DCW              0xB2BA,0x3E33,0x106E,0x244A,0xD
B12,0x3BC8
 1025 00002458 83 B2 21 
              3E 4B 10 
              5E 24 D1 
              DA DA 3B         DCW              0xB283,0x3E21,0x104B,0x245E,0xD
AD1,0x3BDA
 1026 00002464 4C B2 0F 
              3E 28 10 
              73 24 90 
              DA EC 3B         DCW              0xB24C,0x3E0F,0x1028,0x2473,0xD
A90,0x3BEC
 1027 00002470 16 B2 FC 
              3D 05 10 
              88 24 4F 
              DA FD 3B         DCW              0xB216,0x3DFC,0x1005,0x2488,0xD
A4F,0x3BFD
 1028 0000247C E0 B1 E9 
              3D E2 0F 
              9C 24 0F 
              DA 0F 3C         DCW              0xB1E0,0x3DE9,0x0FE2,0x249C,0xD
A0F,0x3C0F
 1029 00002488 AA B1 D6 
              3D BF 0F 
              B1 24 CE 
              D9 20 3C         DCW              0xB1AA,0x3DD6,0x0FBF,0x24B1,0xD



ARM Macro Assembler    Page 72 


9CE,0x3C20
 1030 00002494 75 B1 C2 
              3D 9C 0F 
              C5 24 8E 
              D9 31 3C         DCW              0xB175,0x3DC2,0x0F9C,0x24C5,0xD
98E,0x3C31
 1031 000024A0 40 B1 AF 
              3D 79 0F 
              DA 24 4E 
              D9 42 3C         DCW              0xB140,0x3DAF,0x0F79,0x24DA,0xD
94E,0x3C42
 1032 000024AC 0C B1 9A 
              3D 56 0F 
              EF 24 0D 
              D9 53 3C         DCW              0xB10C,0x3D9A,0x0F56,0x24EF,0xD
90D,0x3C53
 1033 000024B8 D8 B0 86 
              3D 33 0F 
              03 25 CD 
              D8 64 3C         DCW              0xB0D8,0x3D86,0x0F33,0x2503,0xD
8CD,0x3C64
 1034 000024C4 A4 B0 71 
              3D 10 0F 
              18 25 8D 
              D8 74 3C         DCW              0xB0A4,0x3D71,0x0F10,0x2518,0xD
88D,0x3C74
 1035 000024D0 71 B0 5B 
              3D ED 0E 
              2C 25 4D 
              D8 85 3C         DCW              0xB071,0x3D5B,0x0EED,0x252C,0xD
84D,0x3C85
 1036 000024DC 3F B0 46 
              3D CA 0E 
              41 25 0D 
              D8 95 3C         DCW              0xB03F,0x3D46,0x0ECA,0x2541,0xD
80D,0x3C95
 1037 000024E8 0C B0 30 
              3D A7 0E 
              55 25 CE 
              D7 A5 3C         DCW              0xB00C,0x3D30,0x0EA7,0x2555,0xD
7CE,0x3CA5
 1038 000024F4 DB AF 1A 
              3D 84 0E 
              69 25 8E 
              D7 B5 3C         DCW              0xAFDB,0x3D1A,0x0E84,0x2569,0xD
78E,0x3CB5
 1039 00002500 A9 AF 03 
              3D 61 0E 
              7E 25 4F 
              D7 C5 3C         DCW              0xAFA9,0x3D03,0x0E61,0x257E,0xD
74F,0x3CC5
 1040 0000250C 79 AF EC 
              3C 3E 0E 
              92 25 0F 
              D7 D5 3C         DCW              0xAF79,0x3CEC,0x0E3E,0x2592,0xD
70F,0x3CD5
 1041 00002518 48 AF D5 
              3C 1B 0E 
              A6 25 D0 



ARM Macro Assembler    Page 73 


              D6 E4 3C         DCW              0xAF48,0x3CD5,0x0E1B,0x25A6,0xD
6D0,0x3CE4
 1042 00002524 18 AF BD 
              3C F7 0D 
              BB 25 90 
              D6 F4 3C         DCW              0xAF18,0x3CBD,0x0DF7,0x25BB,0xD
690,0x3CF4
 1043 00002530 E8 AE A5 
              3C D4 0D 
              CF 25 51 
              D6 03 3D         DCW              0xAEE8,0x3CA5,0x0DD4,0x25CF,0xD
651,0x3D03
 1044 0000253C B9 AE 8D 
              3C B1 0D 
              E3 25 12 
              D6 12 3D         DCW              0xAEB9,0x3C8D,0x0DB1,0x25E3,0xD
612,0x3D12
 1045 00002548 8B AE 74 
              3C 8E 0D 
              F8 25 D3 
              D5 21 3D         DCW              0xAE8B,0x3C74,0x0D8E,0x25F8,0xD
5D3,0x3D21
 1046 00002554 5C AE 5B 
              3C 6B 0D 
              0C 26 94 
              D5 30 3D         DCW              0xAE5C,0x3C5B,0x0D6B,0x260C,0xD
594,0x3D30
 1047 00002560 2F AE 42 
              3C 48 0D 
              20 26 56 
              D5 3F 3D         DCW              0xAE2F,0x3C42,0x0D48,0x2620,0xD
556,0x3D3F
 1048 0000256C 01 AE 29 
              3C 25 0D 
              34 26 17 
              D5 4D 3D         DCW              0xAE01,0x3C29,0x0D25,0x2634,0xD
517,0x3D4D
 1049 00002578 D4 AD 0F 
              3C 01 0D 
              48 26 D9 
              D4 5B 3D         DCW              0xADD4,0x3C0F,0x0D01,0x2648,0xD
4D9,0x3D5B
 1050 00002584 A8 AD F5 
              3B DE 0C 
              5C 26 9A 
              D4 6A 3D         DCW              0xADA8,0x3BF5,0x0CDE,0x265C,0xD
49A,0x3D6A
 1051 00002590 7C AD DA 
              3B BB 0C 
              71 26 5C 
              D4 78 3D         DCW              0xAD7C,0x3BDA,0x0CBB,0x2671,0xD
45C,0x3D78
 1052 0000259C 50 AD BF 
              3B 98 0C 
              85 26 1E 
              D4 86 3D         DCW              0xAD50,0x3BBF,0x0C98,0x2685,0xD
41E,0x3D86
 1053 000025A8 25 AD A4 
              3B 75 0C 



ARM Macro Assembler    Page 74 


              99 26 DF 
              D3 93 3D         DCW              0xAD25,0x3BA4,0x0C75,0x2699,0xD
3DF,0x3D93
 1054 000025B4 FA AC 88 
              3B 51 0C 
              AD 26 A1 
              D3 A1 3D         DCW              0xACFA,0x3B88,0x0C51,0x26AD,0xD
3A1,0x3DA1
 1055 000025C0 D0 AC 6D 
              3B 2E 0C 
              C1 26 64 
              D3 AF 3D         DCW              0xACD0,0x3B6D,0x0C2E,0x26C1,0xD
364,0x3DAF
 1056 000025CC A6 AC 50 
              3B 0B 0C 
              D5 26 26 
              D3 BC 3D         DCW              0xACA6,0x3B50,0x0C0B,0x26D5,0xD
326,0x3DBC
 1057 000025D8 7D AC 34 
              3B E8 0B 
              E9 26 E8 
              D2 C9 3D         DCW              0xAC7D,0x3B34,0x0BE8,0x26E9,0xD
2E8,0x3DC9
 1058 000025E4 54 AC 17 
              3B C5 0B 
              FD 26 AA 
              D2 D6 3D         DCW              0xAC54,0x3B17,0x0BC5,0x26FD,0xD
2AA,0x3DD6
 1059 000025F0 2C AC FA 
              3A A1 0B 
              11 27 6D 
              D2 E3 3D         DCW              0xAC2C,0x3AFA,0x0BA1,0x2711,0xD
26D,0x3DE3
 1060 000025FC 04 AC DD 
              3A 7E 0B 
              24 27 30 
              D2 F0 3D         DCW              0xAC04,0x3ADD,0x0B7E,0x2724,0xD
230,0x3DF0
 1061 00002608 DC AB BF 
              3A 5B 0B 
              38 27 F2 
              D1 FC 3D         DCW              0xABDC,0x3ABF,0x0B5B,0x2738,0xD
1F2,0x3DFC
 1062 00002614 B5 AB A1 
              3A 38 0B 
              4C 27 B5 
              D1 09 3E         DCW              0xABB5,0x3AA1,0x0B38,0x274C,0xD
1B5,0x3E09
 1063 00002620 8F AB 82 
              3A 14 0B 
              60 27 78 
              D1 15 3E         DCW              0xAB8F,0x3A82,0x0B14,0x2760,0xD
178,0x3E15
 1064 0000262C 68 AB 64 
              3A F1 0A 
              74 27 3B 
              D1 21 3E         DCW              0xAB68,0x3A64,0x0AF1,0x2774,0xD
13B,0x3E21
 1065 00002638 43 AB 45 



ARM Macro Assembler    Page 75 


              3A CE 0A 
              88 27 FF 
              D0 2D 3E         DCW              0xAB43,0x3A45,0x0ACE,0x2788,0xD
0FF,0x3E2D
 1066 00002644 1D AB 25 
              3A AA 0A 
              9B 27 C2 
              D0 39 3E         DCW              0xAB1D,0x3A25,0x0AAA,0x279B,0xD
0C2,0x3E39
 1067 00002650 F9 AA 06 
              3A 87 0A 
              AF 27 85 
              D0 45 3E         DCW              0xAAF9,0x3A06,0x0A87,0x27AF,0xD
085,0x3E45
 1068 0000265C D4 AA E6 
              39 64 0A 
              C3 27 49 
              D0 50 3E         DCW              0xAAD4,0x39E6,0x0A64,0x27C3,0xD
049,0x3E50
 1069 00002668 B1 AA C5 
              39 40 0A 
              D6 27 0C 
              D0 5C 3E         DCW              0xAAB1,0x39C5,0x0A40,0x27D6,0xD
00C,0x3E5C
 1070 00002674 8D AA A5 
              39 1D 0A 
              EA 27 D0 
              CF 67 3E         DCW              0xAA8D,0x39A5,0x0A1D,0x27EA,0xC
FD0,0x3E67
 1071 00002680 6A AA 84 
              39 FA 09 
              FE 27 94 
              CF 72 3E         DCW              0xAA6A,0x3984,0x09FA,0x27FE,0xC
F94,0x3E72
 1072 0000268C 48 AA 63 
              39 D7 09 
              11 28 58 
              CF 7D 3E         DCW              0xAA48,0x3963,0x09D7,0x2811,0xC
F58,0x3E7D
 1073 00002698 26 AA 41 
              39 B3 09 
              25 28 1C 
              CF 88 3E         DCW              0xAA26,0x3941,0x09B3,0x2825,0xC
F1C,0x3E88
 1074 000026A4 04 AA 1F 
              39 90 09 
              38 28 E0 
              CE 92 3E         DCW              0xAA04,0x391F,0x0990,0x2838,0xC
EE0,0x3E92
 1075 000026B0 E3 A9 FD 
              38 6C 09 
              4C 28 A5 
              CE 9D 3E         DCW              0xA9E3,0x38FD,0x096C,0x284C,0xC
EA5,0x3E9D
 1076 000026BC C3 A9 DB 
              38 49 09 
              60 28 69 
              CE A7 3E         DCW              0xA9C3,0x38DB,0x0949,0x2860,0xC
E69,0x3EA7



ARM Macro Assembler    Page 76 


 1077 000026C8 A3 A9 B8 
              38 26 09 
              73 28 2E 
              CE B1 3E         DCW              0xA9A3,0x38B8,0x0926,0x2873,0xC
E2E,0x3EB1
 1078 000026D4 83 A9 95 
              38 02 09 
              86 28 F3 
              CD BB 3E         DCW              0xA983,0x3895,0x0902,0x2886,0xC
DF3,0x3EBB
 1079 000026E0 64 A9 71 
              38 DF 08 
              9A 28 B7 
              CD C5 3E         DCW              0xA964,0x3871,0x08DF,0x289A,0xC
DB7,0x3EC5
 1080 000026EC 45 A9 4E 
              38 BC 08 
              AD 28 7C 
              CD CF 3E         DCW              0xA945,0x384E,0x08BC,0x28AD,0xC
D7C,0x3ECF
 1081 000026F8 27 A9 2A 
              38 98 08 
              C1 28 41 
              CD D8 3E         DCW              0xA927,0x382A,0x0898,0x28C1,0xC
D41,0x3ED8
 1082 00002704 09 A9 05 
              38 75 08 
              D4 28 07 
              CD E2 3E         DCW              0xA909,0x3805,0x0875,0x28D4,0xC
D07,0x3EE2
 1083 00002710 EC A8 E1 
              37 52 08 
              E7 28 CC 
              CC EB 3E         DCW              0xA8EC,0x37E1,0x0852,0x28E7,0xC
CCC,0x3EEB
 1084 0000271C CF A8 BC 
              37 2E 08 
              FB 28 91 
              CC F4 3E         DCW              0xA8CF,0x37BC,0x082E,0x28FB,0xC
C91,0x3EF4
 1085 00002728 B2 A8 97 
              37 0B 08 
              0E 29 57 
              CC FD 3E         DCW              0xA8B2,0x3797,0x080B,0x290E,0xC
C57,0x3EFD
 1086 00002734 97 A8 71 
              37 E7 07 
              21 29 1D 
              CC 06 3F         DCW              0xA897,0x3771,0x07E7,0x2921,0xC
C1D,0x3F06
 1087 00002740 7B A8 4B 
              37 C4 07 
              35 29 E3 
              CB 0F 3F         DCW              0xA87B,0x374B,0x07C4,0x2935,0xC
BE3,0x3F0F
 1088 0000274C 60 A8 25 
              37 A1 07 
              48 29 A8 
              CB 17 3F         DCW              0xA860,0x3725,0x07A1,0x2948,0xC



ARM Macro Assembler    Page 77 


BA8,0x3F17
 1089 00002758 46 A8 FF 
              36 7D 07 
              5B 29 6F 
              CB 20 3F         DCW              0xA846,0x36FF,0x077D,0x295B,0xC
B6F,0x3F20
 1090 00002764 2C A8 D8 
              36 5A 07 
              6E 29 35 
              CB 28 3F         DCW              0xA82C,0x36D8,0x075A,0x296E,0xC
B35,0x3F28
 1091 00002770 12 A8 B1 
              36 36 07 
              81 29 FB 
              CA 30 3F         DCW              0xA812,0x36B1,0x0736,0x2981,0xC
AFB,0x3F30
 1092 0000277C F9 A7 8A 
              36 13 07 
              94 29 C2 
              CA 38 3F         DCW              0xA7F9,0x368A,0x0713,0x2994,0xC
AC2,0x3F38
 1093 00002788 E1 A7 62 
              36 EF 06 
              A7 29 88 
              CA 40 3F         DCW              0xA7E1,0x3662,0x06EF,0x29A7,0xC
A88,0x3F40
 1094 00002794 C9 A7 3A 
              36 CC 06 
              BB 29 4F 
              CA 47 3F         DCW              0xA7C9,0x363A,0x06CC,0x29BB,0xC
A4F,0x3F47
 1095 000027A0 B1 A7 12 
              36 A8 06 
              CE 29 16 
              CA 4F 3F         DCW              0xA7B1,0x3612,0x06A8,0x29CE,0xC
A16,0x3F4F
 1096 000027AC 9A A7 EA 
              35 85 06 
              E1 29 DD 
              C9 56 3F         DCW              0xA79A,0x35EA,0x0685,0x29E1,0xC
9DD,0x3F56
 1097 000027B8 83 A7 C1 
              35 62 06 
              F4 29 A4 
              C9 5D 3F         DCW              0xA783,0x35C1,0x0662,0x29F4,0xC
9A4,0x3F5D
 1098 000027C4 6D A7 98 
              35 3E 06 
              07 2A 6B 
              C9 64 3F         DCW              0xA76D,0x3598,0x063E,0x2A07,0xC
96B,0x3F64
 1099 000027D0 57 A7 6E 
              35 1B 06 
              1A 2A 32 
              C9 6B 3F         DCW              0xA757,0x356E,0x061B,0x2A1A,0xC
932,0x3F6B
 1100 000027DC 42 A7 45 
              35 F7 05 
              2C 2A FA 



ARM Macro Assembler    Page 78 


              C8 72 3F         DCW              0xA742,0x3545,0x05F7,0x2A2C,0xC
8FA,0x3F72
 1101 000027E8 2D A7 1B 
              35 D4 05 
              3F 2A C1 
              C8 78 3F         DCW              0xA72D,0x351B,0x05D4,0x2A3F,0xC
8C1,0x3F78
 1102 000027F4 19 A7 F1 
              34 B0 05 
              52 2A 89 
              C8 7F 3F         DCW              0xA719,0x34F1,0x05B0,0x2A52,0xC
889,0x3F7F
 1103 00002800 05 A7 C6 
              34 8D 05 
              65 2A 51 
              C8 85 3F         DCW              0xA705,0x34C6,0x058D,0x2A65,0xC
851,0x3F85
 1104 0000280C F2 A6 9B 
              34 69 05 
              78 2A 19 
              C8 8B 3F         DCW              0xA6F2,0x349B,0x0569,0x2A78,0xC
819,0x3F8B
 1105 00002818 DF A6 70 
              34 46 05 
              8B 2A E1 
              C7 91 3F         DCW              0xA6DF,0x3470,0x0546,0x2A8B,0xC
7E1,0x3F91
 1106 00002824 CD A6 45 
              34 22 05 
              9D 2A AA 
              C7 97 3F         DCW              0xA6CD,0x3445,0x0522,0x2A9D,0xC
7AA,0x3F97
 1107 00002830 BB A6 19 
              34 FF 04 
              B0 2A 72 
              C7 9C 3F         DCW              0xA6BB,0x3419,0x04FF,0x2AB0,0xC
772,0x3F9C
 1108 0000283C AA A6 ED 
              33 DB 04 
              C3 2A 3B 
              C7 A2 3F         DCW              0xA6AA,0x33ED,0x04DB,0x2AC3,0xC
73B,0x3FA2
 1109 00002848 99 A6 C1 
              33 B8 04 
              D6 2A 03 
              C7 A7 3F         DCW              0xA699,0x33C1,0x04B8,0x2AD6,0xC
703,0x3FA7
 1110 00002854 89 A6 95 
              33 94 04 
              E8 2A CC 
              C6 AC 3F         DCW              0xA689,0x3395,0x0494,0x2AE8,0xC
6CC,0x3FAC
 1111 00002860 79 A6 68 
              33 71 04 
              FB 2A 95 
              C6 B1 3F         DCW              0xA679,0x3368,0x0471,0x2AFB,0xC
695,0x3FB1
 1112 0000286C 69 A6 3B 
              33 4D 04 



ARM Macro Assembler    Page 79 


              0D 2B 5E 
              C6 B6 3F         DCW              0xA669,0x333B,0x044D,0x2B0D,0xC
65E,0x3FB6
 1113 00002878 5A A6 0D 
              33 2A 04 
              20 2B 27 
              C6 BB 3F         DCW              0xA65A,0x330D,0x042A,0x2B20,0xC
627,0x3FBB
 1114 00002884 4C A6 E0 
              32 06 04 
              33 2B F1 
              C5 BF 3F         DCW              0xA64C,0x32E0,0x0406,0x2B33,0xC
5F1,0x3FBF
 1115 00002890 3E A6 B2 
              32 E3 03 
              45 2B BA 
              C5 C4 3F         DCW              0xA63E,0x32B2,0x03E3,0x2B45,0xC
5BA,0x3FC4
 1116 0000289C 31 A6 84 
              32 BF 03 
              58 2B 84 
              C5 C8 3F         DCW              0xA631,0x3284,0x03BF,0x2B58,0xC
584,0x3FC8
 1117 000028A8 24 A6 55 
              32 9C 03 
              6A 2B 4E 
              C5 CC 3F         DCW              0xA624,0x3255,0x039C,0x2B6A,0xC
54E,0x3FCC
 1118 000028B4 17 A6 27 
              32 78 03 
              7D 2B 18 
              C5 D0 3F         DCW              0xA617,0x3227,0x0378,0x2B7D,0xC
518,0x3FD0
 1119 000028C0 0B A6 F8 
              31 55 03 
              8F 2B E2 
              C4 D4 3F         DCW              0xA60B,0x31F8,0x0355,0x2B8F,0xC
4E2,0x3FD4
 1120 000028CC 00 A6 C8 
              31 31 03 
              A1 2B AC 
              C4 D7 3F         DCW              0xA600,0x31C8,0x0331,0x2BA1,0xC
4AC,0x3FD7
 1121 000028D8 F5 A5 99 
              31 0E 03 
              B4 2B 77 
              C4 DB 3F         DCW              0xA5F5,0x3199,0x030E,0x2BB4,0xC
477,0x3FDB
 1122 000028E4 EA A5 69 
              31 EA 02 
              C6 2B 41 
              C4 DE 3F         DCW              0xA5EA,0x3169,0x02EA,0x2BC6,0xC
441,0x3FDE
 1123 000028F0 E0 A5 39 
              31 C7 02 
              D8 2B 0C 
              C4 E1 3F         DCW              0xA5E0,0x3139,0x02C7,0x2BD8,0xC
40C,0x3FE1
 1124 000028FC D7 A5 09 



ARM Macro Assembler    Page 80 


              31 A3 02 
              EB 2B D7 
              C3 E4 3F         DCW              0xA5D7,0x3109,0x02A3,0x2BEB,0xC
3D7,0x3FE4
 1125 00002908 CD A5 D8 
              30 80 02 
              FD 2B A2 
              C3 E7 3F         DCW              0xA5CD,0x30D8,0x0280,0x2BFD,0xC
3A2,0x3FE7
 1126 00002914 C5 A5 A7 
              30 5C 02 
              0F 2C 6D 
              C3 EA 3F         DCW              0xA5C5,0x30A7,0x025C,0x2C0F,0xC
36D,0x3FEA
 1127 00002920 BD A5 76 
              30 39 02 
              21 2C 38 
              C3 EC 3F         DCW              0xA5BD,0x3076,0x0239,0x2C21,0xC
338,0x3FEC
 1128 0000292C B5 A5 45 
              30 15 02 
              34 2C 03 
              C3 EF 3F         DCW              0xA5B5,0x3045,0x0215,0x2C34,0xC
303,0x3FEF
 1129 00002938 AE A5 13 
              30 F2 01 
              46 2C CF 
              C2 F1 3F         DCW              0xA5AE,0x3013,0x01F2,0x2C46,0xC
2CF,0x3FF1
 1130 00002944 A7 A5 E1 
              2F CE 01 
              58 2C 9B 
              C2 F3 3F         DCW              0xA5A7,0x2FE1,0x01CE,0x2C58,0xC
29B,0x3FF3
 1131 00002950 A1 A5 AF 
              2F AA 01 
              6A 2C 66 
              C2 F5 3F         DCW              0xA5A1,0x2FAF,0x01AA,0x2C6A,0xC
266,0x3FF5
 1132 0000295C 9C A5 7D 
              2F 87 01 
              7C 2C 32 
              C2 F7 3F         DCW              0xA59C,0x2F7D,0x0187,0x2C7C,0xC
232,0x3FF7
 1133 00002968 97 A5 4A 
              2F 63 01 
              8E 2C FF 
              C1 F8 3F         DCW              0xA597,0x2F4A,0x0163,0x2C8E,0xC
1FF,0x3FF8
 1134 00002974 92 A5 17 
              2F 40 01 
              A0 2C CB 
              C1 FA 3F         DCW              0xA592,0x2F17,0x0140,0x2CA0,0xC
1CB,0x3FFA
 1135 00002980 8E A5 E4 
              2E 1C 01 
              B2 2C 97 
              C1 FB 3F         DCW              0xA58E,0x2EE4,0x011C,0x2CB2,0xC
197,0x3FFB



ARM Macro Assembler    Page 81 


 1136 0000298C 8A A5 B0 
              2E F9 00 
              C4 2C 64 
              C1 FC 3F         DCW              0xA58A,0x2EB0,0x00F9,0x2CC4,0xC
164,0x3FFC
 1137 00002998 87 A5 7D 
              2E D5 00 
              D6 2C 31 
              C1 FD 3F         DCW              0xA587,0x2E7D,0x00D5,0x2CD6,0xC
131,0x3FFD
 1138 000029A4 84 A5 49 
              2E B2 00 
              E8 2C FE 
              C0 FE 3F         DCW              0xA584,0x2E49,0x00B2,0x2CE8,0xC
0FE,0x3FFE
 1139 000029B0 82 A5 15 
              2E 8E 00 
              FA 2C CB 
              C0 FF 3F         DCW              0xA582,0x2E15,0x008E,0x2CFA,0xC
0CB,0x3FFF
 1140 000029BC 80 A5 E0 
              2D 6B 00 
              0C 2D 98 
              C0 FF 3F         DCW              0xA580,0x2DE0,0x006B,0x2D0C,0xC
098,0x3FFF
 1141 000029C8 7F A5 AB 
              2D 47 00 
              1E 2D 65 
              C0 00 40         DCW              0xA57F,0x2DAB,0x0047,0x2D1E,0xC
065,0x4000
 1142 000029D4 7E A5 76 
              2D 24 00 
              2F 2D 33 
              C0 00 40         DCW              0xA57E,0x2D76,0x0024,0x2D2F,0xC
033,0x4000
 1143 000029E0 7E A5 41 
              2D 00 00 
              41 2D 00 
              C0 00 40         DCW              0xA57E,0x2D41,0x0000,0x2D41,0xC
000,0x4000
 1144 000029EC 7E A5 0C 
              2D DC FF 
              53 2D CE 
              BF 00 40         DCW              0xA57E,0x2D0C,0xFFDC,0x2D53,0xB
FCE,0x4000
 1145 000029F8 7F A5 D6 
              2C B9 FF 
              65 2D 9C 
              BF 00 40         DCW              0xA57F,0x2CD6,0xFFB9,0x2D65,0xB
F9C,0x4000
 1146 00002A04 80 A5 A0 
              2C 95 FF 
              76 2D 6A 
              BF FF 3F         DCW              0xA580,0x2CA0,0xFF95,0x2D76,0xB
F6A,0x3FFF
 1147 00002A10 82 A5 6A 
              2C 72 FF 
              88 2D 39 
              BF FF 3F         DCW              0xA582,0x2C6A,0xFF72,0x2D88,0xB



ARM Macro Assembler    Page 82 


F39,0x3FFF
 1148 00002A1C 84 A5 34 
              2C 4E FF 
              9A 2D 07 
              BF FE 3F         DCW              0xA584,0x2C34,0xFF4E,0x2D9A,0xB
F07,0x3FFE
 1149 00002A28 87 A5 FD 
              2B 2B FF 
              AB 2D D6 
              BE FD 3F         DCW              0xA587,0x2BFD,0xFF2B,0x2DAB,0xB
ED6,0x3FFD
 1150 00002A34 8A A5 C6 
              2B 07 FF 
              BD 2D A4 
              BE FC 3F         DCW              0xA58A,0x2BC6,0xFF07,0x2DBD,0xB
EA4,0x3FFC
 1151 00002A40 8E A5 8F 
              2B E4 FE 
              CF 2D 73 
              BE FB 3F         DCW              0xA58E,0x2B8F,0xFEE4,0x2DCF,0xB
E73,0x3FFB
 1152 00002A4C 92 A5 58 
              2B C0 FE 
              E0 2D 42 
              BE FA 3F         DCW              0xA592,0x2B58,0xFEC0,0x2DE0,0xB
E42,0x3FFA
 1153 00002A58 97 A5 20 
              2B 9D FE 
              F2 2D 11 
              BE F8 3F         DCW              0xA597,0x2B20,0xFE9D,0x2DF2,0xB
E11,0x3FF8
 1154 00002A64 9C A5 E8 
              2A 79 FE 
              03 2E E1 
              BD F7 3F         DCW              0xA59C,0x2AE8,0xFE79,0x2E03,0xB
DE1,0x3FF7
 1155 00002A70 A1 A5 B0 
              2A 56 FE 
              15 2E B0 
              BD F5 3F         DCW              0xA5A1,0x2AB0,0xFE56,0x2E15,0xB
DB0,0x3FF5
 1156 00002A7C A7 A5 78 
              2A 32 FE 
              26 2E 80 
              BD F3 3F         DCW              0xA5A7,0x2A78,0xFE32,0x2E26,0xB
D80,0x3FF3
 1157 00002A88 AE A5 3F 
              2A 0E FE 
              37 2E 50 
              BD F1 3F         DCW              0xA5AE,0x2A3F,0xFE0E,0x2E37,0xB
D50,0x3FF1
 1158 00002A94 B5 A5 07 
              2A EB FD 
              49 2E 20 
              BD EF 3F         DCW              0xA5B5,0x2A07,0xFDEB,0x2E49,0xB
D20,0x3FEF
 1159 00002AA0 BD A5 CE 
              29 C7 FD 
              5A 2E F0 



ARM Macro Assembler    Page 83 


              BC EC 3F         DCW              0xA5BD,0x29CE,0xFDC7,0x2E5A,0xB
CF0,0x3FEC
 1160 00002AAC C5 A5 94 
              29 A4 FD 
              6B 2E C1 
              BC EA 3F         DCW              0xA5C5,0x2994,0xFDA4,0x2E6B,0xB
CC1,0x3FEA
 1161 00002AB8 CD A5 5B 
              29 80 FD 
              7D 2E 91 
              BC E7 3F         DCW              0xA5CD,0x295B,0xFD80,0x2E7D,0xB
C91,0x3FE7
 1162 00002AC4 D7 A5 21 
              29 5D FD 
              8E 2E 62 
              BC E4 3F         DCW              0xA5D7,0x2921,0xFD5D,0x2E8E,0xB
C62,0x3FE4
 1163 00002AD0 E0 A5 E7 
              28 39 FD 
              9F 2E 33 
              BC E1 3F         DCW              0xA5E0,0x28E7,0xFD39,0x2E9F,0xB
C33,0x3FE1
 1164 00002ADC EA A5 AD 
              28 16 FD 
              B0 2E 04 
              BC DE 3F         DCW              0xA5EA,0x28AD,0xFD16,0x2EB0,0xB
C04,0x3FDE
 1165 00002AE8 F5 A5 73 
              28 F2 FC 
              C2 2E D5 
              BB DB 3F         DCW              0xA5F5,0x2873,0xFCF2,0x2EC2,0xB
BD5,0x3FDB
 1166 00002AF4 00 A6 38 
              28 CF FC 
              D3 2E A6 
              BB D7 3F         DCW              0xA600,0x2838,0xFCCF,0x2ED3,0xB
BA6,0x3FD7
 1167 00002B00 0B A6 FE 
              27 AB FC 
              E4 2E 77 
              BB D4 3F         DCW              0xA60B,0x27FE,0xFCAB,0x2EE4,0xB
B77,0x3FD4
 1168 00002B0C 17 A6 C3 
              27 88 FC 
              F5 2E 49 
              BB D0 3F         DCW              0xA617,0x27C3,0xFC88,0x2EF5,0xB
B49,0x3FD0
 1169 00002B18 24 A6 88 
              27 64 FC 
              06 2F 1B 
              BB CC 3F         DCW              0xA624,0x2788,0xFC64,0x2F06,0xB
B1B,0x3FCC
 1170 00002B24 31 A6 4C 
              27 41 FC 
              17 2F ED 
              BA C8 3F         DCW              0xA631,0x274C,0xFC41,0x2F17,0xB
AED,0x3FC8
 1171 00002B30 3E A6 11 
              27 1D FC 



ARM Macro Assembler    Page 84 


              28 2F BF 
              BA C4 3F         DCW              0xA63E,0x2711,0xFC1D,0x2F28,0xB
ABF,0x3FC4
 1172 00002B3C 4C A6 D5 
              26 FA FB 
              39 2F 91 
              BA BF 3F         DCW              0xA64C,0x26D5,0xFBFA,0x2F39,0xB
A91,0x3FBF
 1173 00002B48 5A A6 99 
              26 D6 FB 
              4A 2F 64 
              BA BB 3F         DCW              0xA65A,0x2699,0xFBD6,0x2F4A,0xB
A64,0x3FBB
 1174 00002B54 69 A6 5C 
              26 B3 FB 
              5B 2F 37 
              BA B6 3F         DCW              0xA669,0x265C,0xFBB3,0x2F5B,0xB
A37,0x3FB6
 1175 00002B60 79 A6 20 
              26 8F FB 
              6C 2F 09 
              BA B1 3F         DCW              0xA679,0x2620,0xFB8F,0x2F6C,0xB
A09,0x3FB1
 1176 00002B6C 89 A6 E3 
              25 6C FB 
              7D 2F DC 
              B9 AC 3F         DCW              0xA689,0x25E3,0xFB6C,0x2F7D,0xB
9DC,0x3FAC
 1177 00002B78 99 A6 A6 
              25 48 FB 
              8D 2F AF 
              B9 A7 3F         DCW              0xA699,0x25A6,0xFB48,0x2F8D,0xB
9AF,0x3FA7
 1178 00002B84 AA A6 69 
              25 25 FB 
              9E 2F 83 
              B9 A2 3F         DCW              0xA6AA,0x2569,0xFB25,0x2F9E,0xB
983,0x3FA2
 1179 00002B90 BB A6 2C 
              25 01 FB 
              AF 2F 56 
              B9 9C 3F         DCW              0xA6BB,0x252C,0xFB01,0x2FAF,0xB
956,0x3F9C
 1180 00002B9C CD A6 EF 
              24 DE FA 
              C0 2F 2A 
              B9 97 3F         DCW              0xA6CD,0x24EF,0xFADE,0x2FC0,0xB
92A,0x3F97
 1181 00002BA8 DF A6 B1 
              24 BA FA 
              D0 2F FE 
              B8 91 3F         DCW              0xA6DF,0x24B1,0xFABA,0x2FD0,0xB
8FE,0x3F91
 1182 00002BB4 F2 A6 73 
              24 97 FA 
              E1 2F D2 
              B8 8B 3F         DCW              0xA6F2,0x2473,0xFA97,0x2FE1,0xB
8D2,0x3F8B
 1183 00002BC0 05 A7 35 



ARM Macro Assembler    Page 85 


              24 73 FA 
              F2 2F A6 
              B8 85 3F         DCW              0xA705,0x2435,0xFA73,0x2FF2,0xB
8A6,0x3F85
 1184 00002BCC 19 A7 F7 
              23 50 FA 
              02 30 7A 
              B8 7F 3F         DCW              0xA719,0x23F7,0xFA50,0x3002,0xB
87A,0x3F7F
 1185 00002BD8 2D A7 B8 
              23 2C FA 
              13 30 4F 
              B8 78 3F         DCW              0xA72D,0x23B8,0xFA2C,0x3013,0xB
84F,0x3F78
 1186 00002BE4 42 A7 7A 
              23 09 FA 
              24 30 24 
              B8 72 3F         DCW              0xA742,0x237A,0xFA09,0x3024,0xB
824,0x3F72
 1187 00002BF0 57 A7 3B 
              23 E5 F9 
              34 30 F8 
              B7 6B 3F         DCW              0xA757,0x233B,0xF9E5,0x3034,0xB
7F8,0x3F6B
 1188 00002BFC 6D A7 FC 
              22 C2 F9 
              45 30 CE 
              B7 64 3F         DCW              0xA76D,0x22FC,0xF9C2,0x3045,0xB
7CE,0x3F64
 1189 00002C08 83 A7 BC 
              22 9E F9 
              55 30 A3 
              B7 5D 3F         DCW              0xA783,0x22BC,0xF99E,0x3055,0xB
7A3,0x3F5D
 1190 00002C14 9A A7 7D 
              22 7B F9 
              66 30 78 
              B7 56 3F         DCW              0xA79A,0x227D,0xF97B,0x3066,0xB
778,0x3F56
 1191 00002C20 B1 A7 3D 
              22 58 F9 
              76 30 4E 
              B7 4F 3F         DCW              0xA7B1,0x223D,0xF958,0x3076,0xB
74E,0x3F4F
 1192 00002C2C C9 A7 FE 
              21 34 F9 
              87 30 23 
              B7 47 3F         DCW              0xA7C9,0x21FE,0xF934,0x3087,0xB
723,0x3F47
 1193 00002C38 E1 A7 BE 
              21 11 F9 
              97 30 F9 
              B6 40 3F         DCW              0xA7E1,0x21BE,0xF911,0x3097,0xB
6F9,0x3F40
 1194 00002C44 F9 A7 7D 
              21 ED F8 
              A7 30 CF 
              B6 38 3F         DCW              0xA7F9,0x217D,0xF8ED,0x30A7,0xB
6CF,0x3F38



ARM Macro Assembler    Page 86 


 1195 00002C50 12 A8 3D 
              21 CA F8 
              B8 30 A6 
              B6 30 3F         DCW              0xA812,0x213D,0xF8CA,0x30B8,0xB
6A6,0x3F30
 1196 00002C5C 2C A8 FD 
              20 A6 F8 
              C8 30 7C 
              B6 28 3F         DCW              0xA82C,0x20FD,0xF8A6,0x30C8,0xB
67C,0x3F28
 1197 00002C68 46 A8 BC 
              20 83 F8 
              D8 30 53 
              B6 20 3F         DCW              0xA846,0x20BC,0xF883,0x30D8,0xB
653,0x3F20
 1198 00002C74 60 A8 7B 
              20 5F F8 
              E8 30 2A 
              B6 17 3F         DCW              0xA860,0x207B,0xF85F,0x30E8,0xB
62A,0x3F17
 1199 00002C80 7B A8 3A 
              20 3C F8 
              F9 30 01 
              B6 0F 3F         DCW              0xA87B,0x203A,0xF83C,0x30F9,0xB
601,0x3F0F
 1200 00002C8C 97 A8 F9 
              1F 19 F8 
              09 31 D8 
              B5 06 3F         DCW              0xA897,0x1FF9,0xF819,0x3109,0xB
5D8,0x3F06
 1201 00002C98 B2 A8 B7 
              1F F5 F7 
              19 31 AF 
              B5 FD 3E         DCW              0xA8B2,0x1FB7,0xF7F5,0x3119,0xB
5AF,0x3EFD
 1202 00002CA4 CF A8 76 
              1F D2 F7 
              29 31 87 
              B5 F4 3E         DCW              0xA8CF,0x1F76,0xF7D2,0x3129,0xB
587,0x3EF4
 1203 00002CB0 EC A8 34 
              1F AE F7 
              39 31 5E 
              B5 EB 3E         DCW              0xA8EC,0x1F34,0xF7AE,0x3139,0xB
55E,0x3EEB
 1204 00002CBC 09 A9 F2 
              1E 8B F7 
              49 31 36 
              B5 E2 3E         DCW              0xA909,0x1EF2,0xF78B,0x3149,0xB
536,0x3EE2
 1205 00002CC8 27 A9 B0 
              1E 68 F7 
              59 31 0E 
              B5 D8 3E         DCW              0xA927,0x1EB0,0xF768,0x3159,0xB
50E,0x3ED8
 1206 00002CD4 45 A9 6E 
              1E 44 F7 
              69 31 E6 
              B4 CF 3E         DCW              0xA945,0x1E6E,0xF744,0x3169,0xB



ARM Macro Assembler    Page 87 


4E6,0x3ECF
 1207 00002CE0 64 A9 2B 
              1E 21 F7 
              79 31 BF 
              B4 C5 3E         DCW              0xA964,0x1E2B,0xF721,0x3179,0xB
4BF,0x3EC5
 1208 00002CEC 83 A9 E9 
              1D FE F6 
              89 31 97 
              B4 BB 3E         DCW              0xA983,0x1DE9,0xF6FE,0x3189,0xB
497,0x3EBB
 1209 00002CF8 A3 A9 A6 
              1D DA F6 
              99 31 70 
              B4 B1 3E         DCW              0xA9A3,0x1DA6,0xF6DA,0x3199,0xB
470,0x3EB1
 1210 00002D04 C3 A9 63 
              1D B7 F6 
              A9 31 49 
              B4 A7 3E         DCW              0xA9C3,0x1D63,0xF6B7,0x31A9,0xB
449,0x3EA7
 1211 00002D10 E3 A9 20 
              1D 94 F6 
              B9 31 22 
              B4 9D 3E         DCW              0xA9E3,0x1D20,0xF694,0x31B9,0xB
422,0x3E9D
 1212 00002D1C 04 AA DD 
              1C 70 F6 
              C8 31 FC 
              B3 92 3E         DCW              0xAA04,0x1CDD,0xF670,0x31C8,0xB
3FC,0x3E92
 1213 00002D28 26 AA 99 
              1C 4D F6 
              D8 31 D5 
              B3 88 3E         DCW              0xAA26,0x1C99,0xF64D,0x31D8,0xB
3D5,0x3E88
 1214 00002D34 48 AA 56 
              1C 29 F6 
              E8 31 AF 
              B3 7D 3E         DCW              0xAA48,0x1C56,0xF629,0x31E8,0xB
3AF,0x3E7D
 1215 00002D40 6A AA 12 
              1C 06 F6 
              F8 31 89 
              B3 72 3E         DCW              0xAA6A,0x1C12,0xF606,0x31F8,0xB
389,0x3E72
 1216 00002D4C 8D AA CE 
              1B E3 F5 
              07 32 63 
              B3 67 3E         DCW              0xAA8D,0x1BCE,0xF5E3,0x3207,0xB
363,0x3E67
 1217 00002D58 B1 AA 8A 
              1B C0 F5 
              17 32 3D 
              B3 5C 3E         DCW              0xAAB1,0x1B8A,0xF5C0,0x3217,0xB
33D,0x3E5C
 1218 00002D64 D4 AA 46 
              1B 9C F5 
              27 32 17 



ARM Macro Assembler    Page 88 


              B3 50 3E         DCW              0xAAD4,0x1B46,0xF59C,0x3227,0xB
317,0x3E50
 1219 00002D70 F9 AA 02 
              1B 79 F5 
              36 32 F2 
              B2 45 3E         DCW              0xAAF9,0x1B02,0xF579,0x3236,0xB
2F2,0x3E45
 1220 00002D7C 1D AB BE 
              1A 56 F5 
              46 32 CD 
              B2 39 3E         DCW              0xAB1D,0x1ABE,0xF556,0x3246,0xB
2CD,0x3E39
 1221 00002D88 43 AB 79 
              1A 32 F5 
              55 32 A8 
              B2 2D 3E         DCW              0xAB43,0x1A79,0xF532,0x3255,0xB
2A8,0x3E2D
 1222 00002D94 68 AB 34 
              1A 0F F5 
              65 32 83 
              B2 21 3E         DCW              0xAB68,0x1A34,0xF50F,0x3265,0xB
283,0x3E21
 1223 00002DA0 8F AB EF 
              19 EC F4 
              74 32 5E 
              B2 15 3E         DCW              0xAB8F,0x19EF,0xF4EC,0x3274,0xB
25E,0x3E15
 1224 00002DAC B5 AB AA 
              19 C8 F4 
              84 32 3A 
              B2 09 3E         DCW              0xABB5,0x19AA,0xF4C8,0x3284,0xB
23A,0x3E09
 1225 00002DB8 DC AB 65 
              19 A5 F4 
              93 32 16 
              B2 FC 3D         DCW              0xABDC,0x1965,0xF4A5,0x3293,0xB
216,0x3DFC
 1226 00002DC4 04 AC 20 
              19 82 F4 
              A3 32 F2 
              B1 F0 3D         DCW              0xAC04,0x1920,0xF482,0x32A3,0xB
1F2,0x3DF0
 1227 00002DD0 2C AC DB 
              18 5F F4 
              B2 32 CE 
              B1 E3 3D         DCW              0xAC2C,0x18DB,0xF45F,0x32B2,0xB
1CE,0x3DE3
 1228 00002DDC 54 AC 95 
              18 3B F4 
              C1 32 AA 
              B1 D6 3D         DCW              0xAC54,0x1895,0xF43B,0x32C1,0xB
1AA,0x3DD6
 1229 00002DE8 7D AC 4F 
              18 18 F4 
              D0 32 87 
              B1 C9 3D         DCW              0xAC7D,0x184F,0xF418,0x32D0,0xB
187,0x3DC9
 1230 00002DF4 A6 AC 0A 
              18 F5 F3 



ARM Macro Assembler    Page 89 


              E0 32 63 
              B1 BC 3D         DCW              0xACA6,0x180A,0xF3F5,0x32E0,0xB
163,0x3DBC
 1231 00002E00 D0 AC C4 
              17 D2 F3 
              EF 32 40 
              B1 AF 3D         DCW              0xACD0,0x17C4,0xF3D2,0x32EF,0xB
140,0x3DAF
 1232 00002E0C FA AC 7E 
              17 AF F3 
              FE 32 1D 
              B1 A1 3D         DCW              0xACFA,0x177E,0xF3AF,0x32FE,0xB
11D,0x3DA1
 1233 00002E18 25 AD 37 
              17 8B F3 
              0D 33 FA 
              B0 93 3D         DCW              0xAD25,0x1737,0xF38B,0x330D,0xB
0FA,0x3D93
 1234 00002E24 50 AD F1 
              16 68 F3 
              1D 33 D8 
              B0 86 3D         DCW              0xAD50,0x16F1,0xF368,0x331D,0xB
0D8,0x3D86
 1235 00002E30 7C AD AB 
              16 45 F3 
              2C 33 B5 
              B0 78 3D         DCW              0xAD7C,0x16AB,0xF345,0x332C,0xB
0B5,0x3D78
 1236 00002E3C A8 AD 64 
              16 22 F3 
              3B 33 93 
              B0 6A 3D         DCW              0xADA8,0x1664,0xF322,0x333B,0xB
093,0x3D6A
 1237 00002E48 D4 AD 1D 
              16 FF F2 
              4A 33 71 
              B0 5B 3D         DCW              0xADD4,0x161D,0xF2FF,0x334A,0xB
071,0x3D5B
 1238 00002E54 01 AE D7 
              15 DB F2 
              59 33 4F 
              B0 4D 3D         DCW              0xAE01,0x15D7,0xF2DB,0x3359,0xB
04F,0x3D4D
 1239 00002E60 2F AE 90 
              15 B8 F2 
              68 33 2E 
              B0 3F 3D         DCW              0xAE2F,0x1590,0xF2B8,0x3368,0xB
02E,0x3D3F
 1240 00002E6C 5C AE 49 
              15 95 F2 
              77 33 0C 
              B0 30 3D         DCW              0xAE5C,0x1549,0xF295,0x3377,0xB
00C,0x3D30
 1241 00002E78 8B AE 01 
              15 72 F2 
              86 33 EB 
              AF 21 3D         DCW              0xAE8B,0x1501,0xF272,0x3386,0xA
FEB,0x3D21
 1242 00002E84 B9 AE BA 



ARM Macro Assembler    Page 90 


              14 4F F2 
              95 33 CA 
              AF 12 3D         DCW              0xAEB9,0x14BA,0xF24F,0x3395,0xA
FCA,0x3D12
 1243 00002E90 E8 AE 73 
              14 2C F2 
              A3 33 A9 
              AF 03 3D         DCW              0xAEE8,0x1473,0xF22C,0x33A3,0xA
FA9,0x3D03
 1244 00002E9C 18 AF 2B 
              14 09 F2 
              B2 33 89 
              AF F4 3C         DCW              0xAF18,0x142B,0xF209,0x33B2,0xA
F89,0x3CF4
 1245 00002EA8 48 AF E4 
              13 E5 F1 
              C1 33 68 
              AF E4 3C         DCW              0xAF48,0x13E4,0xF1E5,0x33C1,0xA
F68,0x3CE4
 1246 00002EB4 79 AF 9C 
              13 C2 F1 
              D0 33 48 
              AF D5 3C         DCW              0xAF79,0x139C,0xF1C2,0x33D0,0xA
F48,0x3CD5
 1247 00002EC0 A9 AF 54 
              13 9F F1 
              DF 33 28 
              AF C5 3C         DCW              0xAFA9,0x1354,0xF19F,0x33DF,0xA
F28,0x3CC5
 1248 00002ECC DB AF 0C 
              13 7C F1 
              ED 33 08 
              AF B5 3C         DCW              0xAFDB,0x130C,0xF17C,0x33ED,0xA
F08,0x3CB5
 1249 00002ED8 0C B0 C4 
              12 59 F1 
              FC 33 E8 
              AE A5 3C         DCW              0xB00C,0x12C4,0xF159,0x33FC,0xA
EE8,0x3CA5
 1250 00002EE4 3F B0 7C 
              12 36 F1 
              0B 34 C9 
              AE 95 3C         DCW              0xB03F,0x127C,0xF136,0x340B,0xA
EC9,0x3C95
 1251 00002EF0 71 B0 34 
              12 13 F1 
              19 34 AA 
              AE 85 3C         DCW              0xB071,0x1234,0xF113,0x3419,0xA
EAA,0x3C85
 1252 00002EFC A4 B0 EB 
              11 F0 F0 
              28 34 8B 
              AE 74 3C         DCW              0xB0A4,0x11EB,0xF0F0,0x3428,0xA
E8B,0x3C74
 1253 00002F08 D8 B0 A3 
              11 CD F0 
              36 34 6C 
              AE 64 3C         DCW              0xB0D8,0x11A3,0xF0CD,0x3436,0xA
E6C,0x3C64



ARM Macro Assembler    Page 91 


 1254 00002F14 0C B1 5A 
              11 AA F0 
              45 34 4D 
              AE 53 3C         DCW              0xB10C,0x115A,0xF0AA,0x3445,0xA
E4D,0x3C53
 1255 00002F20 40 B1 12 
              11 87 F0 
              53 34 2F 
              AE 42 3C         DCW              0xB140,0x1112,0xF087,0x3453,0xA
E2F,0x3C42
 1256 00002F2C 75 B1 C9 
              10 64 F0 
              62 34 10 
              AE 31 3C         DCW              0xB175,0x10C9,0xF064,0x3462,0xA
E10,0x3C31
 1257 00002F38 AA B1 80 
              10 41 F0 
              70 34 F2 
              AD 20 3C         DCW              0xB1AA,0x1080,0xF041,0x3470,0xA
DF2,0x3C20
 1258 00002F44 E0 B1 37 
              10 1E F0 
              7F 34 D4 
              AD 0F 3C         DCW              0xB1E0,0x1037,0xF01E,0x347F,0xA
DD4,0x3C0F
 1259 00002F50 16 B2 EE 
              0F FB EF 
              8D 34 B7 
              AD FD 3B         DCW              0xB216,0x0FEE,0xEFFB,0x348D,0xA
DB7,0x3BFD
 1260 00002F5C 4C B2 A5 
              0F D8 EF 
              9B 34 99 
              AD EC 3B         DCW              0xB24C,0x0FA5,0xEFD8,0x349B,0xA
D99,0x3BEC
 1261 00002F68 83 B2 5C 
              0F B5 EF 
              AA 34 7C 
              AD DA 3B         DCW              0xB283,0x0F5C,0xEFB5,0x34AA,0xA
D7C,0x3BDA
 1262 00002F74 BA B2 13 
              0F 92 EF 
              B8 34 5F 
              AD C8 3B         DCW              0xB2BA,0x0F13,0xEF92,0x34B8,0xA
D5F,0x3BC8
 1263 00002F80 F2 B2 CA 
              0E 6F EF 
              C6 34 42 
              AD B6 3B         DCW              0xB2F2,0x0ECA,0xEF6F,0x34C6,0xA
D42,0x3BB6
 1264 00002F8C 2A B3 80 
              0E 4C EF 
              D4 34 25 
              AD A4 3B         DCW              0xB32A,0x0E80,0xEF4C,0x34D4,0xA
D25,0x3BA4
 1265 00002F98 63 B3 37 
              0E 29 EF 
              E2 34 09 
              AD 92 3B         DCW              0xB363,0x0E37,0xEF29,0x34E2,0xA



ARM Macro Assembler    Page 92 


D09,0x3B92
 1266 00002FA4 9C B3 ED 
              0D 06 EF 
              F1 34 EC 
              AC 7F 3B         DCW              0xB39C,0x0DED,0xEF06,0x34F1,0xA
CEC,0x3B7F
 1267 00002FB0 D5 B3 A4 
              0D E3 EE 
              FF 34 D0 
              AC 6D 3B         DCW              0xB3D5,0x0DA4,0xEEE3,0x34FF,0xA
CD0,0x3B6D
 1268 00002FBC 0F B4 5A 
              0D C0 EE 
              0D 35 B4 
              AC 5A 3B         DCW              0xB40F,0x0D5A,0xEEC0,0x350D,0xA
CB4,0x3B5A
 1269 00002FC8 49 B4 10 
              0D 9D EE 
              1B 35 99 
              AC 47 3B         DCW              0xB449,0x0D10,0xEE9D,0x351B,0xA
C99,0x3B47
 1270 00002FD4 84 B4 C6 
              0C 7B EE 
              29 35 7D 
              AC 34 3B         DCW              0xB484,0x0CC6,0xEE7B,0x3529,0xA
C7D,0x3B34
 1271 00002FE0 BF B4 7C 
              0C 58 EE 
              37 35 62 
              AC 21 3B         DCW              0xB4BF,0x0C7C,0xEE58,0x3537,0xA
C62,0x3B21
 1272 00002FEC FA B4 32 
              0C 35 EE 
              45 35 47 
              AC 0E 3B         DCW              0xB4FA,0x0C32,0xEE35,0x3545,0xA
C47,0x3B0E
 1273 00002FF8 36 B5 E8 
              0B 12 EE 
              53 35 2C 
              AC FA 3A         DCW              0xB536,0x0BE8,0xEE12,0x3553,0xA
C2C,0x3AFA
 1274 00003004 72 B5 9E 
              0B EF ED 
              61 35 11 
              AC E6 3A         DCW              0xB572,0x0B9E,0xEDEF,0x3561,0xA
C11,0x3AE6
 1275 00003010 AF B5 54 
              0B CC ED 
              6E 35 F7 
              AB D3 3A         DCW              0xB5AF,0x0B54,0xEDCC,0x356E,0xA
BF7,0x3AD3
 1276 0000301C EC B5 0A 
              0B AA ED 
              7C 35 DC 
              AB BF 3A         DCW              0xB5EC,0x0B0A,0xEDAA,0x357C,0xA
BDC,0x3ABF
 1277 00003028 2A B6 C0 
              0A 87 ED 
              8A 35 C2 



ARM Macro Assembler    Page 93 


              AB AB 3A         DCW              0xB62A,0x0AC0,0xED87,0x358A,0xA
BC2,0x3AAB
 1278 00003034 67 B6 75 
              0A 64 ED 
              98 35 A8 
              AB 97 3A         DCW              0xB667,0x0A75,0xED64,0x3598,0xA
BA8,0x3A97
 1279 00003040 A6 B6 2B 
              0A 41 ED 
              A5 35 8F 
              AB 82 3A         DCW              0xB6A6,0x0A2B,0xED41,0x35A5,0xA
B8F,0x3A82
 1280 0000304C E4 B6 E0 
              09 1E ED 
              B3 35 75 
              AB 6E 3A         DCW              0xB6E4,0x09E0,0xED1E,0x35B3,0xA
B75,0x3A6E
 1281 00003058 23 B7 96 
              09 FC EC 
              C1 35 5C 
              AB 59 3A         DCW              0xB723,0x0996,0xECFC,0x35C1,0xA
B5C,0x3A59
 1282 00003064 63 B7 4B 
              09 D9 EC 
              CE 35 43 
              AB 45 3A         DCW              0xB763,0x094B,0xECD9,0x35CE,0xA
B43,0x3A45
 1283 00003070 A3 B7 01 
              09 B6 EC 
              DC 35 2A 
              AB 30 3A         DCW              0xB7A3,0x0901,0xECB6,0x35DC,0xA
B2A,0x3A30
 1284 0000307C E3 B7 B6 
              08 94 EC 
              EA 35 11 
              AB 1B 3A         DCW              0xB7E3,0x08B6,0xEC94,0x35EA,0xA
B11,0x3A1B
 1285 00003088 24 B8 6B 
              08 71 EC 
              F7 35 F9 
              AA 06 3A         DCW              0xB824,0x086B,0xEC71,0x35F7,0xA
AF9,0x3A06
 1286 00003094 65 B8 20 
              08 4E EC 
              05 36 E0 
              AA F0 39         DCW              0xB865,0x0820,0xEC4E,0x3605,0xA
AE0,0x39F0
 1287 000030A0 A6 B8 D6 
              07 2B EC 
              12 36 C8 
              AA DB 39         DCW              0xB8A6,0x07D6,0xEC2B,0x3612,0xA
AC8,0x39DB
 1288 000030AC E8 B8 8B 
              07 09 EC 
              20 36 B1 
              AA C5 39         DCW              0xB8E8,0x078B,0xEC09,0x3620,0xA
AB1,0x39C5
 1289 000030B8 2A B9 40 
              07 E6 EB 



ARM Macro Assembler    Page 94 


              2D 36 99 
              AA B0 39         DCW              0xB92A,0x0740,0xEBE6,0x362D,0xA
A99,0x39B0
 1290 000030C4 6D B9 F5 
              06 C3 EB 
              3A 36 82 
              AA 9A 39         DCW              0xB96D,0x06F5,0xEBC3,0x363A,0xA
A82,0x399A
 1291 000030D0 AF B9 AA 
              06 A1 EB 
              48 36 6A 
              AA 84 39         DCW              0xB9AF,0x06AA,0xEBA1,0x3648,0xA
A6A,0x3984
 1292 000030DC F3 B9 5F 
              06 7E EB 
              55 36 53 
              AA 6E 39         DCW              0xB9F3,0x065F,0xEB7E,0x3655,0xA
A53,0x396E
 1293 000030E8 37 BA 14 
              06 5C EB 
              62 36 3C 
              AA 58 39         DCW              0xBA37,0x0614,0xEB5C,0x3662,0xA
A3C,0x3958
 1294 000030F4 7B BA C9 
              05 39 EB 
              6F 36 26 
              AA 41 39         DCW              0xBA7B,0x05C9,0xEB39,0x366F,0xA
A26,0x3941
 1295 00003100 BF BA 7E 
              05 16 EB 
              7D 36 0F 
              AA 2B 39         DCW              0xBABF,0x057E,0xEB16,0x367D,0xA
A0F,0x392B
 1296 0000310C 04 BB 33 
              05 F4 EA 
              8A 36 F9 
              A9 14 39         DCW              0xBB04,0x0533,0xEAF4,0x368A,0xA
9F9,0x3914
 1297 00003118 49 BB E7 
              04 D1 EA 
              97 36 E3 
              A9 FD 38         DCW              0xBB49,0x04E7,0xEAD1,0x3697,0xA
9E3,0x38FD
 1298 00003124 8F BB 9C 
              04 AF EA 
              A4 36 CD 
              A9 E6 38         DCW              0xBB8F,0x049C,0xEAAF,0x36A4,0xA
9CD,0x38E6
 1299 00003130 D5 BB 51 
              04 8C EA 
              B1 36 B8 
              A9 CF 38         DCW              0xBBD5,0x0451,0xEA8C,0x36B1,0xA
9B8,0x38CF
 1300 0000313C 1B BC 06 
              04 6A EA 
              BE 36 A3 
              A9 B8 38         DCW              0xBC1B,0x0406,0xEA6A,0x36BE,0xA
9A3,0x38B8
 1301 00003148 62 BC BB 



ARM Macro Assembler    Page 95 


              03 47 EA 
              CB 36 8D 
              A9 A1 38         DCW              0xBC62,0x03BB,0xEA47,0x36CB,0xA
98D,0x38A1
 1302 00003154 A9 BC 6F 
              03 25 EA 
              D8 36 78 
              A9 89 38         DCW              0xBCA9,0x036F,0xEA25,0x36D8,0xA
978,0x3889
 1303 00003160 F0 BC 24 
              03 02 EA 
              E5 36 64 
              A9 71 38         DCW              0xBCF0,0x0324,0xEA02,0x36E5,0xA
964,0x3871
 1304 0000316C 38 BD D9 
              02 E0 E9 
              F2 36 4F 
              A9 5A 38         DCW              0xBD38,0x02D9,0xE9E0,0x36F2,0xA
94F,0x385A
 1305 00003178 80 BD 8D 
              02 BD E9 
              FF 36 3B 
              A9 42 38         DCW              0xBD80,0x028D,0xE9BD,0x36FF,0xA
93B,0x3842
 1306 00003184 C9 BD 42 
              02 9B E9 
              0C 37 27 
              A9 2A 38         DCW              0xBDC9,0x0242,0xE99B,0x370C,0xA
927,0x382A
 1307 00003190 11 BE F7 
              01 78 E9 
              18 37 13 
              A9 12 38         DCW              0xBE11,0x01F7,0xE978,0x3718,0xA
913,0x3812
 1308 0000319C 5B BE AB 
              01 56 E9 
              25 37 FF 
              A8 F9 37         DCW              0xBE5B,0x01AB,0xE956,0x3725,0xA
8FF,0x37F9
 1309 000031A8 A4 BE 60 
              01 34 E9 
              32 37 EC 
              A8 E1 37         DCW              0xBEA4,0x0160,0xE934,0x3732,0xA
8EC,0x37E1
 1310 000031B4 EE BE 14 
              01 11 E9 
              3F 37 D8 
              A8 C8 37         DCW              0xBEEE,0x0114,0xE911,0x373F,0xA
8D8,0x37C8
 1311 000031C0 39 BF C9 
              00 EF E8 
              4B 37 C5 
              A8 B0 37         DCW              0xBF39,0x00C9,0xE8EF,0x374B,0xA
8C5,0x37B0
 1312 000031CC 83 BF 7E 
              00 CC E8 
              58 37 B2 
              A8 97 37         DCW              0xBF83,0x007E,0xE8CC,0x3758,0xA
8B2,0x3797



ARM Macro Assembler    Page 96 


 1313 000031D8 CE BF 32 
              00 AA E8 
              65 37 A0 
              A8 7E 37         DCW              0xBFCE,0x0032,0xE8AA,0x3765,0xA
8A0,0x377E
 1314 000031E4 19 C0 E7 
              FF 88 E8 
              71 37 8D 
              A8 65 37         DCW              0xC019,0xFFE7,0xE888,0x3771,0xA
88D,0x3765
 1315 000031F0 65 C0 9B 
              FF 65 E8 
              7E 37 7B 
              A8 4B 37         DCW              0xC065,0xFF9B,0xE865,0x377E,0xA
87B,0x374B
 1316 000031FC B1 C0 50 
              FF 43 E8 
              8A 37 69 
              A8 32 37         DCW              0xC0B1,0xFF50,0xE843,0x378A,0xA
869,0x3732
 1317 00003208 FE C0 05 
              FF 21 E8 
              97 37 57 
              A8 18 37         DCW              0xC0FE,0xFF05,0xE821,0x3797,0xA
857,0x3718
 1318 00003214 4A C1 B9 
              FE FF E7 
              A3 37 46 
              A8 FF 36         DCW              0xC14A,0xFEB9,0xE7FF,0x37A3,0xA
846,0x36FF
 1319 00003220 97 C1 6E 
              FE DC E7 
              B0 37 34 
              A8 E5 36         DCW              0xC197,0xFE6E,0xE7DC,0x37B0,0xA
834,0x36E5
 1320 0000322C E5 C1 23 
              FE BA E7 
              BC 37 23 
              A8 CB 36         DCW              0xC1E5,0xFE23,0xE7BA,0x37BC,0xA
823,0x36CB
 1321 00003238 32 C2 D7 
              FD 98 E7 
              C8 37 12 
              A8 B1 36         DCW              0xC232,0xFDD7,0xE798,0x37C8,0xA
812,0x36B1
 1322 00003244 81 C2 8C 
              FD 76 E7 
              D5 37 02 
              A8 97 36         DCW              0xC281,0xFD8C,0xE776,0x37D5,0xA
802,0x3697
 1323 00003250 CF C2 40 
              FD 53 E7 
              E1 37 F1 
              A7 7D 36         DCW              0xC2CF,0xFD40,0xE753,0x37E1,0xA
7F1,0x367D
 1324 0000325C 1E C3 F5 
              FC 31 E7 
              ED 37 E1 
              A7 62 36         DCW              0xC31E,0xFCF5,0xE731,0x37ED,0xA



ARM Macro Assembler    Page 97 


7E1,0x3662
 1325 00003268 6D C3 AA 
              FC 0F E7 
              F9 37 D1 
              A7 48 36         DCW              0xC36D,0xFCAA,0xE70F,0x37F9,0xA
7D1,0x3648
 1326 00003274 BC C3 5F 
              FC ED E6 
              05 38 C1 
              A7 2D 36         DCW              0xC3BC,0xFC5F,0xE6ED,0x3805,0xA
7C1,0x362D
 1327 00003280 0C C4 13 
              FC CB E6 
              12 38 B1 
              A7 12 36         DCW              0xC40C,0xFC13,0xE6CB,0x3812,0xA
7B1,0x3612
 1328 0000328C 5C C4 C8 
              FB A9 E6 
              1E 38 A2 
              A7 F7 35         DCW              0xC45C,0xFBC8,0xE6A9,0x381E,0xA
7A2,0x35F7
 1329 00003298 AC C4 7D 
              FB 86 E6 
              2A 38 92 
              A7 DC 35         DCW              0xC4AC,0xFB7D,0xE686,0x382A,0xA
792,0x35DC
 1330 000032A4 FD C4 32 
              FB 64 E6 
              36 38 83 
              A7 C1 35         DCW              0xC4FD,0xFB32,0xE664,0x3836,0xA
783,0x35C1
 1331 000032B0 4E C5 E6 
              FA 42 E6 
              42 38 74 
              A7 A5 35         DCW              0xC54E,0xFAE6,0xE642,0x3842,0xA
774,0x35A5
 1332 000032BC 9F C5 9B 
              FA 20 E6 
              4E 38 66 
              A7 8A 35         DCW              0xC59F,0xFA9B,0xE620,0x384E,0xA
766,0x358A
 1333 000032C8 F1 C5 50 
              FA FE E5 
              5A 38 57 
              A7 6E 35         DCW              0xC5F1,0xFA50,0xE5FE,0x385A,0xA
757,0x356E
 1334 000032D4 43 C6 05 
              FA DC E5 
              66 38 49 
              A7 53 35         DCW              0xC643,0xFA05,0xE5DC,0x3866,0xA
749,0x3553
 1335 000032E0 95 C6 BA 
              F9 BA E5 
              71 38 3B 
              A7 37 35         DCW              0xC695,0xF9BA,0xE5BA,0x3871,0xA
73B,0x3537
 1336 000032EC E8 C6 6F 
              F9 98 E5 
              7D 38 2D 



ARM Macro Assembler    Page 98 


              A7 1B 35         DCW              0xC6E8,0xF96F,0xE598,0x387D,0xA
72D,0x351B
 1337 000032F8 3B C7 24 
              F9 76 E5 
              89 38 20 
              A7 FF 34         DCW              0xC73B,0xF924,0xE576,0x3889,0xA
720,0x34FF
 1338 00003304 8E C7 D9 
              F8 54 E5 
              95 38 13 
              A7 E2 34         DCW              0xC78E,0xF8D9,0xE554,0x3895,0xA
713,0x34E2
 1339 00003310 E1 C7 8E 
              F8 32 E5 
              A1 38 05 
              A7 C6 34         DCW              0xC7E1,0xF88E,0xE532,0x38A1,0xA
705,0x34C6
 1340 0000331C 35 C8 43 
              F8 10 E5 
              AC 38 F9 
              A6 AA 34         DCW              0xC835,0xF843,0xE510,0x38AC,0xA
6F9,0x34AA
 1341 00003328 89 C8 F9 
              F7 EE E4 
              B8 38 EC 
              A6 8D 34         DCW              0xC889,0xF7F9,0xE4EE,0x38B8,0xA
6EC,0x348D
 1342 00003334 DE C8 AE 
              F7 CC E4 
              C3 38 DF 
              A6 70 34         DCW              0xC8DE,0xF7AE,0xE4CC,0x38C3,0xA
6DF,0x3470
 1343 00003340 32 C9 63 
              F7 AB E4 
              CF 38 D3 
              A6 53 34         DCW              0xC932,0xF763,0xE4AB,0x38CF,0xA
6D3,0x3453
 1344 0000334C 87 C9 18 
              F7 89 E4 
              DB 38 C7 
              A6 36 34         DCW              0xC987,0xF718,0xE489,0x38DB,0xA
6C7,0x3436
 1345 00003358 DD C9 CE 
              F6 67 E4 
              E6 38 BB 
              A6 19 34         DCW              0xC9DD,0xF6CE,0xE467,0x38E6,0xA
6BB,0x3419
 1346 00003364 32 CA 83 
              F6 45 E4 
              F2 38 B0 
              A6 FC 33         DCW              0xCA32,0xF683,0xE445,0x38F2,0xA
6B0,0x33FC
 1347 00003370 88 CA 39 
              F6 23 E4 
              FD 38 A4 
              A6 DF 33         DCW              0xCA88,0xF639,0xE423,0x38FD,0xA
6A4,0x33DF
 1348 0000337C DE CA EE 
              F5 01 E4 



ARM Macro Assembler    Page 99 


              09 39 99 
              A6 C1 33         DCW              0xCADE,0xF5EE,0xE401,0x3909,0xA
699,0x33C1
 1349 00003388 35 CB A4 
              F5 E0 E3 
              14 39 8E 
              A6 A3 33         DCW              0xCB35,0xF5A4,0xE3E0,0x3914,0xA
68E,0x33A3
 1350 00003394 8B CB 59 
              F5 BE E3 
              1F 39 83 
              A6 86 33         DCW              0xCB8B,0xF559,0xE3BE,0x391F,0xA
683,0x3386
 1351 000033A0 E3 CB 0F 
              F5 9C E3 
              2B 39 79 
              A6 68 33         DCW              0xCBE3,0xF50F,0xE39C,0x392B,0xA
679,0x3368
 1352 000033AC 3A CC C5 
              F4 7A E3 
              36 39 6E 
              A6 4A 33         DCW              0xCC3A,0xF4C5,0xE37A,0x3936,0xA
66E,0x334A
 1353 000033B8 91 CC 7B 
              F4 59 E3 
              41 39 64 
              A6 2C 33         DCW              0xCC91,0xF47B,0xE359,0x3941,0xA
664,0x332C
 1354 000033C4 E9 CC 30 
              F4 37 E3 
              4C 39 5A 
              A6 0D 33         DCW              0xCCE9,0xF430,0xE337,0x394C,0xA
65A,0x330D
 1355 000033D0 41 CD E6 
              F3 15 E3 
              58 39 51 
              A6 EF 32         DCW              0xCD41,0xF3E6,0xE315,0x3958,0xA
651,0x32EF
 1356 000033DC 9A CD 9C 
              F3 F3 E2 
              63 39 47 
              A6 D0 32         DCW              0xCD9A,0xF39C,0xE2F3,0x3963,0xA
647,0x32D0
 1357 000033E8 F3 CD 52 
              F3 D2 E2 
              6E 39 3E 
              A6 B2 32         DCW              0xCDF3,0xF352,0xE2D2,0x396E,0xA
63E,0x32B2
 1358 000033F4 4C CE 08 
              F3 B0 E2 
              79 39 35 
              A6 93 32         DCW              0xCE4C,0xF308,0xE2B0,0x3979,0xA
635,0x3293
 1359 00003400 A5 CE BF 
              F2 8F E2 
              84 39 2C 
              A6 74 32         DCW              0xCEA5,0xF2BF,0xE28F,0x3984,0xA
62C,0x3274
 1360 0000340C FE CE 75 



ARM Macro Assembler    Page 100 


              F2 6D E2 
              8F 39 24 
              A6 55 32         DCW              0xCEFE,0xF275,0xE26D,0x398F,0xA
624,0x3255
 1361 00003418 58 CF 2B 
              F2 4B E2 
              9A 39 1B 
              A6 36 32         DCW              0xCF58,0xF22B,0xE24B,0x399A,0xA
61B,0x3236
 1362 00003424 B2 CF E2 
              F1 2A E2 
              A5 39 13 
              A6 17 32         DCW              0xCFB2,0xF1E2,0xE22A,0x39A5,0xA
613,0x3217
 1363 00003430 0C D0 98 
              F1 08 E2 
              B0 39 0B 
              A6 F8 31         DCW              0xD00C,0xF198,0xE208,0x39B0,0xA
60B,0x31F8
 1364 0000343C 67 D0 4F 
              F1 E7 E1 
              BB 39 03 
              A6 D8 31         DCW              0xD067,0xF14F,0xE1E7,0x39BB,0xA
603,0x31D8
 1365 00003448 C2 D0 05 
              F1 C5 E1 
              C5 39 FC 
              A5 B9 31         DCW              0xD0C2,0xF105,0xE1C5,0x39C5,0xA
5FC,0x31B9
 1366 00003454 1D D1 BC 
              F0 A4 E1 
              D0 39 F5 
              A5 99 31         DCW              0xD11D,0xF0BC,0xE1A4,0x39D0,0xA
5F5,0x3199
 1367 00003460 78 D1 73 
              F0 82 E1 
              DB 39 EE 
              A5 79 31         DCW              0xD178,0xF073,0xE182,0x39DB,0xA
5EE,0x3179
 1368 0000346C D4 D1 2A 
              F0 61 E1 
              E6 39 E7 
              A5 59 31         DCW              0xD1D4,0xF02A,0xE161,0x39E6,0xA
5E7,0x3159
 1369 00003478 30 D2 E1 
              EF 3F E1 
              F0 39 E0 
              A5 39 31         DCW              0xD230,0xEFE1,0xE13F,0x39F0,0xA
5E0,0x3139
 1370 00003484 8C D2 98 
              EF 1E E1 
              FB 39 DA 
              A5 19 31         DCW              0xD28C,0xEF98,0xE11E,0x39FB,0xA
5DA,0x3119
 1371 00003490 E8 D2 4F 
              EF FD E0 
              06 3A D3 
              A5 F9 30         DCW              0xD2E8,0xEF4F,0xE0FD,0x3A06,0xA
5D3,0x30F9



ARM Macro Assembler    Page 101 


 1372 0000349C 45 D3 06 
              EF DB E0 
              10 3A CD 
              A5 D8 30         DCW              0xD345,0xEF06,0xE0DB,0x3A10,0xA
5CD,0x30D8
 1373 000034A8 A1 D3 BE 
              EE BA E0 
              1B 3A C8 
              A5 B8 30         DCW              0xD3A1,0xEEBE,0xE0BA,0x3A1B,0xA
5C8,0x30B8
 1374 000034B4 FF D3 75 
              EE 98 E0 
              25 3A C2 
              A5 97 30         DCW              0xD3FF,0xEE75,0xE098,0x3A25,0xA
5C2,0x3097
 1375 000034C0 5C D4 2D 
              EE 77 E0 
              30 3A BD 
              A5 76 30         DCW              0xD45C,0xEE2D,0xE077,0x3A30,0xA
5BD,0x3076
 1376 000034CC B9 D4 E4 
              ED 56 E0 
              3A 3A B8 
              A5 55 30         DCW              0xD4B9,0xEDE4,0xE056,0x3A3A,0xA
5B8,0x3055
 1377 000034D8 17 D5 9C 
              ED 35 E0 
              45 3A B3 
              A5 34 30         DCW              0xD517,0xED9C,0xE035,0x3A45,0xA
5B3,0x3034
 1378 000034E4 75 D5 54 
              ED 13 E0 
              4F 3A AE 
              A5 13 30         DCW              0xD575,0xED54,0xE013,0x3A4F,0xA
5AE,0x3013
 1379 000034F0 D3 D5 0C 
              ED F2 DF 
              59 3A AA 
              A5 F2 2F         DCW              0xD5D3,0xED0C,0xDFF2,0x3A59,0xA
5AA,0x2FF2
 1380 000034FC 32 D6 C4 
              EC D1 DF 
              64 3A A5 
              A5 D0 2F         DCW              0xD632,0xECC4,0xDFD1,0x3A64,0xA
5A5,0x2FD0
 1381 00003508 90 D6 7C 
              EC B0 DF 
              6E 3A A1 
              A5 AF 2F         DCW              0xD690,0xEC7C,0xDFB0,0x3A6E,0xA
5A1,0x2FAF
 1382 00003514 EF D6 34 
              EC 8E DF 
              78 3A 9E 
              A5 8D 2F         DCW              0xD6EF,0xEC34,0xDF8E,0x3A78,0xA
59E,0x2F8D
 1383 00003520 4F D7 ED 
              EB 6D DF 
              82 3A 9A 
              A5 6C 2F         DCW              0xD74F,0xEBED,0xDF6D,0x3A82,0xA



ARM Macro Assembler    Page 102 


59A,0x2F6C
 1384 0000352C AE D7 A5 
              EB 4C DF 
              8D 3A 97 
              A5 4A 2F         DCW              0xD7AE,0xEBA5,0xDF4C,0x3A8D,0xA
597,0x2F4A
 1385 00003538 0D D8 5E 
              EB 2B DF 
              97 3A 93 
              A5 28 2F         DCW              0xD80D,0xEB5E,0xDF2B,0x3A97,0xA
593,0x2F28
 1386 00003544 6D D8 16 
              EB 0A DF 
              A1 3A 90 
              A5 06 2F         DCW              0xD86D,0xEB16,0xDF0A,0x3AA1,0xA
590,0x2F06
 1387 00003550 CD D8 CF 
              EA E9 DE 
              AB 3A 8E 
              A5 E4 2E         DCW              0xD8CD,0xEACF,0xDEE9,0x3AAB,0xA
58E,0x2EE4
 1388 0000355C 2D D9 88 
              EA C8 DE 
              B5 3A 8B 
              A5 C2 2E         DCW              0xD92D,0xEA88,0xDEC8,0x3AB5,0xA
58B,0x2EC2
 1389 00003568 8E D9 41 
              EA A7 DE 
              BF 3A 89 
              A5 9F 2E         DCW              0xD98E,0xEA41,0xDEA7,0x3ABF,0xA
589,0x2E9F
 1390 00003574 EE D9 FA 
              E9 86 DE 
              C9 3A 87 
              A5 7D 2E         DCW              0xD9EE,0xE9FA,0xDE86,0x3AC9,0xA
587,0x2E7D
 1391 00003580 4F DA B4 
              E9 65 DE 
              D3 3A 85 
              A5 5A 2E         DCW              0xDA4F,0xE9B4,0xDE65,0x3AD3,0xA
585,0x2E5A
 1392 0000358C B0 DA 6D 
              E9 44 DE 
              DD 3A 83 
              A5 37 2E         DCW              0xDAB0,0xE96D,0xDE44,0x3ADD,0xA
583,0x2E37
 1393 00003598 12 DB 26 
              E9 23 DE 
              E6 3A 82 
              A5 15 2E         DCW              0xDB12,0xE926,0xDE23,0x3AE6,0xA
582,0x2E15
 1394 000035A4 73 DB E0 
              E8 02 DE 
              F0 3A 81 
              A5 F2 2D         DCW              0xDB73,0xE8E0,0xDE02,0x3AF0,0xA
581,0x2DF2
 1395 000035B0 D5 DB 9A 
              E8 E1 DD 
              FA 3A 80 



ARM Macro Assembler    Page 103 


              A5 CF 2D         DCW              0xDBD5,0xE89A,0xDDE1,0x3AFA,0xA
580,0x2DCF
 1396 000035BC 37 DC 54 
              E8 C0 DD 
              04 3B 7F 
              A5 AB 2D         DCW              0xDC37,0xE854,0xDDC0,0x3B04,0xA
57F,0x2DAB
 1397 000035C8 99 DC 0E 
              E8 9F DD 
              0E 3B 7E 
              A5 88 2D         DCW              0xDC99,0xE80E,0xDD9F,0x3B0E,0xA
57E,0x2D88
 1398 000035D4 FB DC C8 
              E7 7E DD 
              17 3B 7E 
              A5 65 2D         DCW              0xDCFB,0xE7C8,0xDD7E,0x3B17,0xA
57E,0x2D65
 1399 000035E0 5D DD 82 
              E7 5D DD 
              21 3B 7E 
              A5 41 2D         DCW              0xDD5D,0xE782,0xDD5D,0x3B21,0xA
57E,0x2D41
 1400 000035EC C0 DD 3D 
              E7 3C DD 
              2A 3B 7E 
              A5 1E 2D         DCW              0xDDC0,0xE73D,0xDD3C,0x3B2A,0xA
57E,0x2D1E
 1401 000035F8 23 DE F7 
              E6 1C DD 
              34 3B 7E 
              A5 FA 2C         DCW              0xDE23,0xE6F7,0xDD1C,0x3B34,0xA
57E,0x2CFA
 1402 00003604 86 DE B2 
              E6 FB DC 
              3E 3B 7F 
              A5 D6 2C         DCW              0xDE86,0xE6B2,0xDCFB,0x3B3E,0xA
57F,0x2CD6
 1403 00003610 E9 DE 6D 
              E6 DA DC 
              47 3B 80 
              A5 B2 2C         DCW              0xDEE9,0xE66D,0xDCDA,0x3B47,0xA
580,0x2CB2
 1404 0000361C 4C DF 28 
              E6 B9 DC 
              50 3B 81 
              A5 8E 2C         DCW              0xDF4C,0xE628,0xDCB9,0x3B50,0xA
581,0x2C8E
 1405 00003628 B0 DF E3 
              E5 99 DC 
              5A 3B 82 
              A5 6A 2C         DCW              0xDFB0,0xE5E3,0xDC99,0x3B5A,0xA
582,0x2C6A
 1406 00003634 13 E0 9E 
              E5 78 DC 
              63 3B 83 
              A5 46 2C         DCW              0xE013,0xE59E,0xDC78,0x3B63,0xA
583,0x2C46
 1407 00003640 77 E0 59 
              E5 57 DC 



ARM Macro Assembler    Page 104 


              6D 3B 85 
              A5 21 2C         DCW              0xE077,0xE559,0xDC57,0x3B6D,0xA
585,0x2C21
 1408 0000364C DB E0 15 
              E5 37 DC 
              76 3B 87 
              A5 FD 2B         DCW              0xE0DB,0xE515,0xDC37,0x3B76,0xA
587,0x2BFD
 1409 00003658 3F E1 D0 
              E4 16 DC 
              7F 3B 89 
              A5 D8 2B         DCW              0xE13F,0xE4D0,0xDC16,0x3B7F,0xA
589,0x2BD8
 1410 00003664 A4 E1 8C 
              E4 F5 DB 
              88 3B 8B 
              A5 B4 2B         DCW              0xE1A4,0xE48C,0xDBF5,0x3B88,0xA
58B,0x2BB4
 1411 00003670 08 E2 48 
              E4 D5 DB 
              92 3B 8E 
              A5 8F 2B         DCW              0xE208,0xE448,0xDBD5,0x3B92,0xA
58E,0x2B8F
 1412 0000367C 6D E2 04 
              E4 B4 DB 
              9B 3B 90 
              A5 6A 2B         DCW              0xE26D,0xE404,0xDBB4,0x3B9B,0xA
590,0x2B6A
 1413 00003688 D2 E2 C1 
              E3 94 DB 
              A4 3B 93 
              A5 45 2B         DCW              0xE2D2,0xE3C1,0xDB94,0x3BA4,0xA
593,0x2B45
 1414 00003694 37 E3 7D 
              E3 73 DB 
              AD 3B 97 
              A5 20 2B         DCW              0xE337,0xE37D,0xDB73,0x3BAD,0xA
597,0x2B20
 1415 000036A0 9C E3 3A 
              E3 53 DB 
              B6 3B 9A 
              A5 FB 2A         DCW              0xE39C,0xE33A,0xDB53,0x3BB6,0xA
59A,0x2AFB
 1416 000036AC 01 E4 F6 
              E2 32 DB 
              BF 3B 9E 
              A5 D6 2A         DCW              0xE401,0xE2F6,0xDB32,0x3BBF,0xA
59E,0x2AD6
 1417 000036B8 67 E4 B3 
              E2 12 DB 
              C8 3B A1 
              A5 B0 2A         DCW              0xE467,0xE2B3,0xDB12,0x3BC8,0xA
5A1,0x2AB0
 1418 000036C4 CC E4 70 
              E2 F1 DA 
              D1 3B A5 
              A5 8B 2A         DCW              0xE4CC,0xE270,0xDAF1,0x3BD1,0xA
5A5,0x2A8B
 1419 000036D0 32 E5 2D 



ARM Macro Assembler    Page 105 


              E2 D1 DA 
              DA 3B AA 
              A5 65 2A         DCW              0xE532,0xE22D,0xDAD1,0x3BDA,0xA
5AA,0x2A65
 1420 000036DC 98 E5 EB 
              E1 B0 DA 
              E3 3B AE 
              A5 3F 2A         DCW              0xE598,0xE1EB,0xDAB0,0x3BE3,0xA
5AE,0x2A3F
 1421 000036E8 FE E5 A8 
              E1 90 DA 
              EC 3B B3 
              A5 1A 2A         DCW              0xE5FE,0xE1A8,0xDA90,0x3BEC,0xA
5B3,0x2A1A
 1422 000036F4 64 E6 66 
              E1 70 DA 
              F5 3B B8 
              A5 F4 29         DCW              0xE664,0xE166,0xDA70,0x3BF5,0xA
5B8,0x29F4
 1423 00003700 CB E6 24 
              E1 4F DA 
              FD 3B BD 
              A5 CE 29         DCW              0xE6CB,0xE124,0xDA4F,0x3BFD,0xA
5BD,0x29CE
 1424 0000370C 31 E7 E2 
              E0 2F DA 
              06 3C C2 
              A5 A7 29         DCW              0xE731,0xE0E2,0xDA2F,0x3C06,0xA
5C2,0x29A7
 1425 00003718 98 E7 A0 
              E0 0F DA 
              0F 3C C8 
              A5 81 29         DCW              0xE798,0xE0A0,0xDA0F,0x3C0F,0xA
5C8,0x2981
 1426 00003724 FF E7 5E 
              E0 EE D9 
              17 3C CD 
              A5 5B 29         DCW              0xE7FF,0xE05E,0xD9EE,0x3C17,0xA
5CD,0x295B
 1427 00003730 65 E8 1D 
              E0 CE D9 
              20 3C D3 
              A5 35 29         DCW              0xE865,0xE01D,0xD9CE,0x3C20,0xA
5D3,0x2935
 1428 0000373C CC E8 DC 
              DF AE D9 
              29 3C DA 
              A5 0E 29         DCW              0xE8CC,0xDFDC,0xD9AE,0x3C29,0xA
5DA,0x290E
 1429 00003748 34 E9 9B 
              DF 8E D9 
              31 3C E0 
              A5 E7 28         DCW              0xE934,0xDF9B,0xD98E,0x3C31,0xA
5E0,0x28E7
 1430 00003754 9B E9 5A 
              DF 6E D9 
              3A 3C E7 
              A5 C1 28         DCW              0xE99B,0xDF5A,0xD96E,0x3C3A,0xA
5E7,0x28C1



ARM Macro Assembler    Page 106 


 1431 00003760 02 EA 19 
              DF 4E D9 
              42 3C EE 
              A5 9A 28         DCW              0xEA02,0xDF19,0xD94E,0x3C42,0xA
5EE,0x289A
 1432 0000376C 6A EA D8 
              DE 2D D9 
              4B 3C F5 
              A5 73 28         DCW              0xEA6A,0xDED8,0xD92D,0x3C4B,0xA
5F5,0x2873
 1433 00003778 D1 EA 98 
              DE 0D D9 
              53 3C FC 
              A5 4C 28         DCW              0xEAD1,0xDE98,0xD90D,0x3C53,0xA
5FC,0x284C
 1434 00003784 39 EB 58 
              DE ED D8 
              5B 3C 03 
              A6 25 28         DCW              0xEB39,0xDE58,0xD8ED,0x3C5B,0xA
603,0x2825
 1435 00003790 A1 EB 18 
              DE CD D8 
              64 3C 0B 
              A6 FE 27         DCW              0xEBA1,0xDE18,0xD8CD,0x3C64,0xA
60B,0x27FE
 1436 0000379C 09 EC D8 
              DD AD D8 
              6C 3C 13 
              A6 D6 27         DCW              0xEC09,0xDDD8,0xD8AD,0x3C6C,0xA
613,0x27D6
 1437 000037A8 71 EC 98 
              DD 8D D8 
              74 3C 1B 
              A6 AF 27         DCW              0xEC71,0xDD98,0xD88D,0x3C74,0xA
61B,0x27AF
 1438 000037B4 D9 EC 59 
              DD 6D D8 
              7D 3C 24 
              A6 88 27         DCW              0xECD9,0xDD59,0xD86D,0x3C7D,0xA
624,0x2788
 1439 000037C0 41 ED 19 
              DD 4D D8 
              85 3C 2C 
              A6 60 27         DCW              0xED41,0xDD19,0xD84D,0x3C85,0xA
62C,0x2760
 1440 000037CC AA ED DA 
              DC 2D D8 
              8D 3C 35 
              A6 38 27         DCW              0xEDAA,0xDCDA,0xD82D,0x3C8D,0xA
635,0x2738
 1441 000037D8 12 EE 9B 
              DC 0D D8 
              95 3C 3E 
              A6 11 27         DCW              0xEE12,0xDC9B,0xD80D,0x3C95,0xA
63E,0x2711
 1442 000037E4 7B EE 5D 
              DC EE D7 
              9D 3C 47 
              A6 E9 26         DCW              0xEE7B,0xDC5D,0xD7EE,0x3C9D,0xA



ARM Macro Assembler    Page 107 


647,0x26E9
 1443 000037F0 E3 EE 1E 
              DC CE D7 
              A5 3C 51 
              A6 C1 26         DCW              0xEEE3,0xDC1E,0xD7CE,0x3CA5,0xA
651,0x26C1
 1444 000037FC 4C EF E0 
              DB AE D7 
              AD 3C 5A 
              A6 99 26         DCW              0xEF4C,0xDBE0,0xD7AE,0x3CAD,0xA
65A,0x2699
 1445 00003808 B5 EF A2 
              DB 8E D7 
              B5 3C 64 
              A6 71 26         DCW              0xEFB5,0xDBA2,0xD78E,0x3CB5,0xA
664,0x2671
 1446 00003814 1E F0 64 
              DB 6E D7 
              BD 3C 6E 
              A6 48 26         DCW              0xF01E,0xDB64,0xD76E,0x3CBD,0xA
66E,0x2648
 1447 00003820 87 F0 26 
              DB 4F D7 
              C5 3C 79 
              A6 20 26         DCW              0xF087,0xDB26,0xD74F,0x3CC5,0xA
679,0x2620
 1448 0000382C F0 F0 E8 
              DA 2F D7 
              CD 3C 83 
              A6 F8 25         DCW              0xF0F0,0xDAE8,0xD72F,0x3CCD,0xA
683,0x25F8
 1449 00003838 59 F1 AB 
              DA 0F D7 
              D5 3C 8E 
              A6 CF 25         DCW              0xF159,0xDAAB,0xD70F,0x3CD5,0xA
68E,0x25CF
 1450 00003844 C2 F1 6E 
              DA EF D6 
              DD 3C 99 
              A6 A6 25         DCW              0xF1C2,0xDA6E,0xD6EF,0x3CDD,0xA
699,0x25A6
 1451 00003850 2C F2 31 
              DA D0 D6 
              E4 3C A4 
              A6 7E 25         DCW              0xF22C,0xDA31,0xD6D0,0x3CE4,0xA
6A4,0x257E
 1452 0000385C 95 F2 F4 
              D9 B0 D6 
              EC 3C B0 
              A6 55 25         DCW              0xF295,0xD9F4,0xD6B0,0x3CEC,0xA
6B0,0x2555
 1453 00003868 FF F2 B8 
              D9 90 D6 
              F4 3C BB 
              A6 2C 25         DCW              0xF2FF,0xD9B8,0xD690,0x3CF4,0xA
6BB,0x252C
 1454 00003874 68 F3 7B 
              D9 71 D6 
              FB 3C C7 



ARM Macro Assembler    Page 108 


              A6 03 25         DCW              0xF368,0xD97B,0xD671,0x3CFB,0xA
6C7,0x2503
 1455 00003880 D2 F3 3F 
              D9 51 D6 
              03 3D D3 
              A6 DA 24         DCW              0xF3D2,0xD93F,0xD651,0x3D03,0xA
6D3,0x24DA
 1456 0000388C 3B F4 03 
              D9 32 D6 
              0B 3D DF 
              A6 B1 24         DCW              0xF43B,0xD903,0xD632,0x3D0B,0xA
6DF,0x24B1
 1457 00003898 A5 F4 C8 
              D8 12 D6 
              12 3D EC 
              A6 88 24         DCW              0xF4A5,0xD8C8,0xD612,0x3D12,0xA
6EC,0x2488
 1458 000038A4 0F F5 8C 
              D8 F3 D5 
              1A 3D F9 
              A6 5E 24         DCW              0xF50F,0xD88C,0xD5F3,0x3D1A,0xA
6F9,0x245E
 1459 000038B0 79 F5 51 
              D8 D3 D5 
              21 3D 05 
              A7 35 24         DCW              0xF579,0xD851,0xD5D3,0x3D21,0xA
705,0x2435
 1460 000038BC E3 F5 16 
              D8 B4 D5 
              28 3D 13 
              A7 0B 24         DCW              0xF5E3,0xD816,0xD5B4,0x3D28,0xA
713,0x240B
 1461 000038C8 4D F6 DB 
              D7 94 D5 
              30 3D 20 
              A7 E2 23         DCW              0xF64D,0xD7DB,0xD594,0x3D30,0xA
720,0x23E2
 1462 000038D4 B7 F6 A0 
              D7 75 D5 
              37 3D 2D 
              A7 B8 23         DCW              0xF6B7,0xD7A0,0xD575,0x3D37,0xA
72D,0x23B8
 1463 000038E0 21 F7 66 
              D7 56 D5 
              3F 3D 3B 
              A7 8E 23         DCW              0xF721,0xD766,0xD556,0x3D3F,0xA
73B,0x238E
 1464 000038EC 8B F7 2C 
              D7 36 D5 
              46 3D 49 
              A7 65 23         DCW              0xF78B,0xD72C,0xD536,0x3D46,0xA
749,0x2365
 1465 000038F8 F5 F7 F2 
              D6 17 D5 
              4D 3D 57 
              A7 3B 23         DCW              0xF7F5,0xD6F2,0xD517,0x3D4D,0xA
757,0x233B
 1466 00003904 5F F8 B8 
              D6 F8 D4 



ARM Macro Assembler    Page 109 


              54 3D 66 
              A7 11 23         DCW              0xF85F,0xD6B8,0xD4F8,0x3D54,0xA
766,0x2311
 1467 00003910 CA F8 7F 
              D6 D9 D4 
              5B 3D 74 
              A7 E7 22         DCW              0xF8CA,0xD67F,0xD4D9,0x3D5B,0xA
774,0x22E7
 1468 0000391C 34 F9 45 
              D6 B9 D4 
              63 3D 83 
              A7 BC 22         DCW              0xF934,0xD645,0xD4B9,0x3D63,0xA
783,0x22BC
 1469 00003928 9E F9 0C 
              D6 9A D4 
              6A 3D 92 
              A7 92 22         DCW              0xF99E,0xD60C,0xD49A,0x3D6A,0xA
792,0x2292
 1470 00003934 09 FA D4 
              D5 7B D4 
              71 3D A2 
              A7 68 22         DCW              0xFA09,0xD5D4,0xD47B,0x3D71,0xA
7A2,0x2268
 1471 00003940 73 FA 9B 
              D5 5C D4 
              78 3D B1 
              A7 3D 22         DCW              0xFA73,0xD59B,0xD45C,0x3D78,0xA
7B1,0x223D
 1472 0000394C DE FA 63 
              D5 3D D4 
              7F 3D C1 
              A7 13 22         DCW              0xFADE,0xD563,0xD43D,0x3D7F,0xA
7C1,0x2213
 1473 00003958 48 FB 2A 
              D5 1E D4 
              86 3D D1 
              A7 E8 21         DCW              0xFB48,0xD52A,0xD41E,0x3D86,0xA
7D1,0x21E8
 1474 00003964 B3 FB F3 
              D4 FF D3 
              8D 3D E1 
              A7 BE 21         DCW              0xFBB3,0xD4F3,0xD3FF,0x3D8D,0xA
7E1,0x21BE
 1475 00003970 1D FC BB 
              D4 DF D3 
              93 3D F1 
              A7 93 21         DCW              0xFC1D,0xD4BB,0xD3DF,0x3D93,0xA
7F1,0x2193
 1476 0000397C 88 FC 83 
              D4 C0 D3 
              9A 3D 02 
              A8 68 21         DCW              0xFC88,0xD483,0xD3C0,0x3D9A,0xA
802,0x2168
 1477 00003988 F2 FC 4C 
              D4 A1 D3 
              A1 3D 12 
              A8 3D 21         DCW              0xFCF2,0xD44C,0xD3A1,0x3DA1,0xA
812,0x213D
 1478 00003994 5D FD 15 



ARM Macro Assembler    Page 110 


              D4 82 D3 
              A8 3D 23 
              A8 12 21         DCW              0xFD5D,0xD415,0xD382,0x3DA8,0xA
823,0x2112
 1479 000039A0 C7 FD DF 
              D3 64 D3 
              AF 3D 34 
              A8 E7 20         DCW              0xFDC7,0xD3DF,0xD364,0x3DAF,0xA
834,0x20E7
 1480 000039AC 32 FE A8 
              D3 45 D3 
              B5 3D 46 
              A8 BC 20         DCW              0xFE32,0xD3A8,0xD345,0x3DB5,0xA
846,0x20BC
 1481 000039B8 9D FE 72 
              D3 26 D3 
              BC 3D 57 
              A8 91 20         DCW              0xFE9D,0xD372,0xD326,0x3DBC,0xA
857,0x2091
 1482 000039C4 07 FF 3C 
              D3 07 D3 
              C2 3D 69 
              A8 65 20         DCW              0xFF07,0xD33C,0xD307,0x3DC2,0xA
869,0x2065
 1483 000039D0 72 FF 06 
              D3 E8 D2 
              C9 3D 7B 
              A8 3A 20         DCW              0xFF72,0xD306,0xD2E8,0x3DC9,0xA
87B,0x203A
 1484 000039DC DC FF D1 
              D2 C9 D2 
              D0 3D 8D 
              A8 0F 20         DCW              0xFFDC,0xD2D1,0xD2C9,0x3DD0,0xA
88D,0x200F
 1485 000039E8 47 00 9B 
              D2 AA D2 
              D6 3D A0 
              A8 E3 1F         DCW              0x0047,0xD29B,0xD2AA,0x3DD6,0xA
8A0,0x1FE3
 1486 000039F4 B2 00 66 
              D2 8C D2 
              DD 3D B2 
              A8 B7 1F         DCW              0x00B2,0xD266,0xD28C,0x3DDD,0xA
8B2,0x1FB7
 1487 00003A00 1C 01 31 
              D2 6D D2 
              E3 3D C5 
              A8 8C 1F         DCW              0x011C,0xD231,0xD26D,0x3DE3,0xA
8C5,0x1F8C
 1488 00003A0C 87 01 FD 
              D1 4E D2 
              E9 3D D8 
              A8 60 1F         DCW              0x0187,0xD1FD,0xD24E,0x3DE9,0xA
8D8,0x1F60
 1489 00003A18 F2 01 C9 
              D1 30 D2 
              F0 3D EC 
              A8 34 1F         DCW              0x01F2,0xD1C9,0xD230,0x3DF0,0xA
8EC,0x1F34



ARM Macro Assembler    Page 111 


 1490 00003A24 5C 02 95 
              D1 11 D2 
              F6 3D FF 
              A8 08 1F         DCW              0x025C,0xD195,0xD211,0x3DF6,0xA
8FF,0x1F08
 1491 00003A30 C7 02 61 
              D1 F2 D1 
              FC 3D 13 
              A9 DC 1E         DCW              0x02C7,0xD161,0xD1F2,0x3DFC,0xA
913,0x1EDC
 1492 00003A3C 31 03 2D 
              D1 D4 D1 
              03 3E 27 
              A9 B0 1E         DCW              0x0331,0xD12D,0xD1D4,0x3E03,0xA
927,0x1EB0
 1493 00003A48 9C 03 FA 
              D0 B5 D1 
              09 3E 3B 
              A9 84 1E         DCW              0x039C,0xD0FA,0xD1B5,0x3E09,0xA
93B,0x1E84
 1494 00003A54 06 04 C7 
              D0 97 D1 
              0F 3E 4F 
              A9 58 1E         DCW              0x0406,0xD0C7,0xD197,0x3E0F,0xA
94F,0x1E58
 1495 00003A60 71 04 94 
              D0 78 D1 
              15 3E 64 
              A9 2B 1E         DCW              0x0471,0xD094,0xD178,0x3E15,0xA
964,0x1E2B
 1496 00003A6C DB 04 62 
              D0 5A D1 
              1B 3E 78 
              A9 FF 1D         DCW              0x04DB,0xD062,0xD15A,0x3E1B,0xA
978,0x1DFF
 1497 00003A78 46 05 30 
              D0 3B D1 
              21 3E 8D 
              A9 D3 1D         DCW              0x0546,0xD030,0xD13B,0x3E21,0xA
98D,0x1DD3
 1498 00003A84 B0 05 FE 
              CF 1D D1 
              27 3E A3 
              A9 A6 1D         DCW              0x05B0,0xCFFE,0xD11D,0x3E27,0xA
9A3,0x1DA6
 1499 00003A90 1B 06 CC 
              CF FF D0 
              2D 3E B8 
              A9 79 1D         DCW              0x061B,0xCFCC,0xD0FF,0x3E2D,0xA
9B8,0x1D79
 1500 00003A9C 85 06 9A 
              CF E0 D0 
              33 3E CD 
              A9 4D 1D         DCW              0x0685,0xCF9A,0xD0E0,0x3E33,0xA
9CD,0x1D4D
 1501 00003AA8 EF 06 69 
              CF C2 D0 
              39 3E E3 
              A9 20 1D         DCW              0x06EF,0xCF69,0xD0C2,0x3E39,0xA



ARM Macro Assembler    Page 112 


9E3,0x1D20
 1502 00003AB4 5A 07 38 
              CF A4 D0 
              3F 3E F9 
              A9 F3 1C         DCW              0x075A,0xCF38,0xD0A4,0x3E3F,0xA
9F9,0x1CF3
 1503 00003AC0 C4 07 07 
              CF 85 D0 
              45 3E 0F 
              AA C6 1C         DCW              0x07C4,0xCF07,0xD085,0x3E45,0xA
A0F,0x1CC6
 1504 00003ACC 2E 08 D7 
              CE 67 D0 
              4A 3E 26 
              AA 99 1C         DCW              0x082E,0xCED7,0xD067,0x3E4A,0xA
A26,0x1C99
 1505 00003AD8 98 08 A7 
              CE 49 D0 
              50 3E 3C 
              AA 6C 1C         DCW              0x0898,0xCEA7,0xD049,0x3E50,0xA
A3C,0x1C6C
 1506 00003AE4 02 09 77 
              CE 2B D0 
              56 3E 53 
              AA 3F 1C         DCW              0x0902,0xCE77,0xD02B,0x3E56,0xA
A53,0x1C3F
 1507 00003AF0 6C 09 47 
              CE 0C D0 
              5C 3E 6A 
              AA 12 1C         DCW              0x096C,0xCE47,0xD00C,0x3E5C,0xA
A6A,0x1C12
 1508 00003AFC D7 09 18 
              CE EE CF 
              61 3E 82 
              AA E5 1B         DCW              0x09D7,0xCE18,0xCFEE,0x3E61,0xA
A82,0x1BE5
 1509 00003B08 40 0A E9 
              CD D0 CF 
              67 3E 99 
              AA B8 1B         DCW              0x0A40,0xCDE9,0xCFD0,0x3E67,0xA
A99,0x1BB8
 1510 00003B14 AA 0A BA 
              CD B2 CF 
              6C 3E B1 
              AA 8A 1B         DCW              0x0AAA,0xCDBA,0xCFB2,0x3E6C,0xA
AB1,0x1B8A
 1511 00003B20 14 0B 8C 
              CD 94 CF 
              72 3E C8 
              AA 5D 1B         DCW              0x0B14,0xCD8C,0xCF94,0x3E72,0xA
AC8,0x1B5D
 1512 00003B2C 7E 0B 5D 
              CD 76 CF 
              77 3E E0 
              AA 30 1B         DCW              0x0B7E,0xCD5D,0xCF76,0x3E77,0xA
AE0,0x1B30
 1513 00003B38 E8 0B 30 
              CD 58 CF 
              7D 3E F9 



ARM Macro Assembler    Page 113 


              AA 02 1B         DCW              0x0BE8,0xCD30,0xCF58,0x3E7D,0xA
AF9,0x1B02
 1514 00003B44 51 0C 02 
              CD 3A CF 
              82 3E 11 
              AB D4 1A         DCW              0x0C51,0xCD02,0xCF3A,0x3E82,0xA
B11,0x1AD4
 1515 00003B50 BB 0C D4 
              CC 1C CF 
              88 3E 2A 
              AB A7 1A         DCW              0x0CBB,0xCCD4,0xCF1C,0x3E88,0xA
B2A,0x1AA7
 1516 00003B5C 25 0D A7 
              CC FE CE 
              8D 3E 43 
              AB 79 1A         DCW              0x0D25,0xCCA7,0xCEFE,0x3E8D,0xA
B43,0x1A79
 1517 00003B68 8E 0D 7A 
              CC E0 CE 
              92 3E 5C 
              AB 4B 1A         DCW              0x0D8E,0xCC7A,0xCEE0,0x3E92,0xA
B5C,0x1A4B
 1518 00003B74 F7 0D 4E 
              CC C3 CE 
              98 3E 75 
              AB 1D 1A         DCW              0x0DF7,0xCC4E,0xCEC3,0x3E98,0xA
B75,0x1A1D
 1519 00003B80 61 0E 21 
              CC A5 CE 
              9D 3E 8F 
              AB EF 19         DCW              0x0E61,0xCC21,0xCEA5,0x3E9D,0xA
B8F,0x19EF
 1520 00003B8C CA 0E F5 
              CB 87 CE 
              A2 3E A8 
              AB C1 19         DCW              0x0ECA,0xCBF5,0xCE87,0x3EA2,0xA
BA8,0x19C1
 1521 00003B98 33 0F CA 
              CB 69 CE 
              A7 3E C2 
              AB 93 19         DCW              0x0F33,0xCBCA,0xCE69,0x3EA7,0xA
BC2,0x1993
 1522 00003BA4 9C 0F 9E 
              CB 4C CE 
              AC 3E DC 
              AB 65 19         DCW              0x0F9C,0xCB9E,0xCE4C,0x3EAC,0xA
BDC,0x1965
 1523 00003BB0 05 10 73 
              CB 2E CE 
              B1 3E F7 
              AB 37 19         DCW              0x1005,0xCB73,0xCE2E,0x3EB1,0xA
BF7,0x1937
 1524 00003BBC 6E 10 48 
              CB 10 CE 
              B6 3E 11 
              AC 09 19         DCW              0x106E,0xCB48,0xCE10,0x3EB6,0xA
C11,0x1909
 1525 00003BC8 D7 10 1E 
              CB F3 CD 



ARM Macro Assembler    Page 114 


              BB 3E 2C 
              AC DB 18         DCW              0x10D7,0xCB1E,0xCDF3,0x3EBB,0xA
C2C,0x18DB
 1526 00003BD4 40 11 F3 
              CA D5 CD 
              C0 3E 47 
              AC AC 18         DCW              0x1140,0xCAF3,0xCDD5,0x3EC0,0xA
C47,0x18AC
 1527 00003BE0 A8 11 C9 
              CA B7 CD 
              C5 3E 62 
              AC 7E 18         DCW              0x11A8,0xCAC9,0xCDB7,0x3EC5,0xA
C62,0x187E
 1528 00003BEC 11 12 9F 
              CA 9A CD 
              CA 3E 7D 
              AC 4F 18         DCW              0x1211,0xCA9F,0xCD9A,0x3ECA,0xA
C7D,0x184F
 1529 00003BF8 79 12 76 
              CA 7C CD 
              CF 3E 99 
              AC 21 18         DCW              0x1279,0xCA76,0xCD7C,0x3ECF,0xA
C99,0x1821
 1530 00003C04 E2 12 4D 
              CA 5F CD 
              D4 3E B4 
              AC F2 17         DCW              0x12E2,0xCA4D,0xCD5F,0x3ED4,0xA
CB4,0x17F2
 1531 00003C10 4A 13 24 
              CA 41 CD 
              D8 3E D0 
              AC C4 17         DCW              0x134A,0xCA24,0xCD41,0x3ED8,0xA
CD0,0x17C4
 1532 00003C1C B2 13 FB 
              C9 24 CD 
              DD 3E EC 
              AC 95 17         DCW              0x13B2,0xC9FB,0xCD24,0x3EDD,0xA
CEC,0x1795
 1533 00003C28 1A 14 D3 
              C9 07 CD 
              E2 3E 09 
              AD 66 17         DCW              0x141A,0xC9D3,0xCD07,0x3EE2,0xA
D09,0x1766
 1534 00003C34 82 14 AB 
              C9 E9 CC 
              E7 3E 25 
              AD 37 17         DCW              0x1482,0xC9AB,0xCCE9,0x3EE7,0xA
D25,0x1737
 1535 00003C40 EA 14 83 
              C9 CC CC 
              EB 3E 42 
              AD 09 17         DCW              0x14EA,0xC983,0xCCCC,0x3EEB,0xA
D42,0x1709
 1536 00003C4C 51 15 5C 
              C9 AF CC 
              F0 3E 5F 
              AD DA 16         DCW              0x1551,0xC95C,0xCCAF,0x3EF0,0xA
D5F,0x16DA
 1537 00003C58 B9 15 35 



ARM Macro Assembler    Page 115 


              C9 91 CC 
              F4 3E 7C 
              AD AB 16         DCW              0x15B9,0xC935,0xCC91,0x3EF4,0xA
D7C,0x16AB
 1538 00003C64 20 16 0E 
              C9 74 CC 
              F9 3E 99 
              AD 7C 16         DCW              0x1620,0xC90E,0xCC74,0x3EF9,0xA
D99,0x167C
 1539 00003C70 88 16 E8 
              C8 57 CC 
              FD 3E B7 
              AD 4C 16         DCW              0x1688,0xC8E8,0xCC57,0x3EFD,0xA
DB7,0x164C
 1540 00003C7C EF 16 C1 
              C8 3A CC 
              02 3F D4 
              AD 1D 16         DCW              0x16EF,0xC8C1,0xCC3A,0x3F02,0xA
DD4,0x161D
 1541 00003C88 56 17 9B 
              C8 1D CC 
              06 3F F2 
              AD EE 15         DCW              0x1756,0xC89B,0xCC1D,0x3F06,0xA
DF2,0x15EE
 1542 00003C94 BD 17 76 
              C8 00 CC 
              0A 3F 10 
              AE BF 15         DCW              0x17BD,0xC876,0xCC00,0x3F0A,0xA
E10,0x15BF
 1543 00003CA0 24 18 50 
              C8 E3 CB 
              0F 3F 2F 
              AE 90 15         DCW              0x1824,0xC850,0xCBE3,0x3F0F,0xA
E2F,0x1590
 1544 00003CAC 8A 18 2B 
              C8 C5 CB 
              13 3F 4D 
              AE 60 15         DCW              0x188A,0xC82B,0xCBC5,0x3F13,0xA
E4D,0x1560
 1545 00003CB8 F1 18 07 
              C8 A8 CB 
              17 3F 6C 
              AE 31 15         DCW              0x18F1,0xC807,0xCBA8,0x3F17,0xA
E6C,0x1531
 1546 00003CC4 57 19 E2 
              C7 8B CB 
              1C 3F 8B 
              AE 01 15         DCW              0x1957,0xC7E2,0xCB8B,0x3F1C,0xA
E8B,0x1501
 1547 00003CD0 BE 19 BE 
              C7 6F CB 
              20 3F AA 
              AE D2 14         DCW              0x19BE,0xC7BE,0xCB6F,0x3F20,0xA
EAA,0x14D2
 1548 00003CDC 24 1A 9A 
              C7 52 CB 
              24 3F C9 
              AE A2 14         DCW              0x1A24,0xC79A,0xCB52,0x3F24,0xA
EC9,0x14A2



ARM Macro Assembler    Page 116 


 1549 00003CE8 8A 1A 77 
              C7 35 CB 
              28 3F E8 
              AE 73 14         DCW              0x1A8A,0xC777,0xCB35,0x3F28,0xA
EE8,0x1473
 1550 00003CF4 F0 1A 54 
              C7 18 CB 
              2C 3F 08 
              AF 43 14         DCW              0x1AF0,0xC754,0xCB18,0x3F2C,0xA
F08,0x1443
 1551 00003D00 55 1B 31 
              C7 FB CA 
              30 3F 28 
              AF 13 14         DCW              0x1B55,0xC731,0xCAFB,0x3F30,0xA
F28,0x1413
 1552 00003D0C BB 1B 0E 
              C7 DE CA 
              34 3F 48 
              AF E4 13         DCW              0x1BBB,0xC70E,0xCADE,0x3F34,0xA
F48,0x13E4
 1553 00003D18 20 1C EC 
              C6 C2 CA 
              38 3F 68 
              AF B4 13         DCW              0x1C20,0xC6EC,0xCAC2,0x3F38,0xA
F68,0x13B4
 1554 00003D24 86 1C CA 
              C6 A5 CA 
              3C 3F 89 
              AF 84 13         DCW              0x1C86,0xC6CA,0xCAA5,0x3F3C,0xA
F89,0x1384
 1555 00003D30 EB 1C A8 
              C6 88 CA 
              40 3F A9 
              AF 54 13         DCW              0x1CEB,0xC6A8,0xCA88,0x3F40,0xA
FA9,0x1354
 1556 00003D3C 50 1D 87 
              C6 6B CA 
              43 3F CA 
              AF 24 13         DCW              0x1D50,0xC687,0xCA6B,0x3F43,0xA
FCA,0x1324
 1557 00003D48 B5 1D 66 
              C6 4F CA 
              47 3F EB 
              AF F4 12         DCW              0x1DB5,0xC666,0xCA4F,0x3F47,0xA
FEB,0x12F4
 1558 00003D54 19 1E 45 
              C6 32 CA 
              4B 3F 0C 
              B0 C4 12         DCW              0x1E19,0xC645,0xCA32,0x3F4B,0xB
00C,0x12C4
 1559 00003D60 7E 1E 25 
              C6 16 CA 
              4F 3F 2E 
              B0 94 12         DCW              0x1E7E,0xC625,0xCA16,0x3F4F,0xB
02E,0x1294
 1560 00003D6C E2 1E 05 
              C6 F9 C9 
              52 3F 4F 
              B0 64 12         DCW              0x1EE2,0xC605,0xC9F9,0x3F52,0xB



ARM Macro Assembler    Page 117 


04F,0x1264
 1561 00003D78 46 1F E5 
              C5 DD C9 
              56 3F 71 
              B0 34 12         DCW              0x1F46,0xC5E5,0xC9DD,0x3F56,0xB
071,0x1234
 1562 00003D84 AA 1F C6 
              C5 C0 C9 
              5A 3F 93 
              B0 04 12         DCW              0x1FAA,0xC5C6,0xC9C0,0x3F5A,0xB
093,0x1204
 1563 00003D90 0E 20 A7 
              C5 A4 C9 
              5D 3F B5 
              B0 D3 11         DCW              0x200E,0xC5A7,0xC9A4,0x3F5D,0xB
0B5,0x11D3
 1564 00003D9C 72 20 88 
              C5 87 C9 
              61 3F D8 
              B0 A3 11         DCW              0x2072,0xC588,0xC987,0x3F61,0xB
0D8,0x11A3
 1565 00003DA8 D5 20 69 
              C5 6B C9 
              64 3F FA 
              B0 73 11         DCW              0x20D5,0xC569,0xC96B,0x3F64,0xB
0FA,0x1173
 1566 00003DB4 38 21 4B 
              C5 4F C9 
              68 3F 1D 
              B1 42 11         DCW              0x2138,0xC54B,0xC94F,0x3F68,0xB
11D,0x1142
 1567 00003DC0 9B 21 2D 
              C5 32 C9 
              6B 3F 40 
              B1 12 11         DCW              0x219B,0xC52D,0xC932,0x3F6B,0xB
140,0x1112
 1568 00003DCC FE 21 10 
              C5 16 C9 
              6E 3F 63 
              B1 E1 10         DCW              0x21FE,0xC510,0xC916,0x3F6E,0xB
163,0x10E1
 1569 00003DD8 61 22 F2 
              C4 FA C8 
              72 3F 87 
              B1 B1 10         DCW              0x2261,0xC4F2,0xC8FA,0x3F72,0xB
187,0x10B1
 1570 00003DE4 C4 22 D6 
              C4 DE C8 
              75 3F AA 
              B1 80 10         DCW              0x22C4,0xC4D6,0xC8DE,0x3F75,0xB
1AA,0x1080
 1571 00003DF0 26 23 B9 
              C4 C1 C8 
              78 3F CE 
              B1 50 10         DCW              0x2326,0xC4B9,0xC8C1,0x3F78,0xB
1CE,0x1050
 1572 00003DFC 88 23 9D 
              C4 A5 C8 
              7B 3F F2 



ARM Macro Assembler    Page 118 


              B1 1F 10         DCW              0x2388,0xC49D,0xC8A5,0x3F7B,0xB
1F2,0x101F
 1573 00003E08 EA 23 81 
              C4 89 C8 
              7F 3F 16 
              B2 EE 0F         DCW              0x23EA,0xC481,0xC889,0x3F7F,0xB
216,0x0FEE
 1574 00003E14 4C 24 65 
              C4 6D C8 
              82 3F 3A 
              B2 BE 0F         DCW              0x244C,0xC465,0xC86D,0x3F82,0xB
23A,0x0FBE
 1575 00003E20 AD 24 4A 
              C4 51 C8 
              85 3F 5E 
              B2 8D 0F         DCW              0x24AD,0xC44A,0xC851,0x3F85,0xB
25E,0x0F8D
 1576 00003E2C 0F 25 2F 
              C4 35 C8 
              88 3F 83 
              B2 5C 0F         DCW              0x250F,0xC42F,0xC835,0x3F88,0xB
283,0x0F5C
 1577 00003E38 70 25 14 
              C4 19 C8 
              8B 3F A8 
              B2 2B 0F         DCW              0x2570,0xC414,0xC819,0x3F8B,0xB
2A8,0x0F2B
 1578 00003E44 D1 25 FA 
              C3 FD C7 
              8E 3F CD 
              B2 FB 0E         DCW              0x25D1,0xC3FA,0xC7FD,0x3F8E,0xB
2CD,0x0EFB
 1579 00003E50 32 26 E0 
              C3 E1 C7 
              91 3F F2 
              B2 CA 0E         DCW              0x2632,0xC3E0,0xC7E1,0x3F91,0xB
2F2,0x0ECA
 1580 00003E5C 92 26 C6 
              C3 C5 C7 
              94 3F 17 
              B3 99 0E         DCW              0x2692,0xC3C6,0xC7C5,0x3F94,0xB
317,0x0E99
 1581 00003E68 F3 26 AD 
              C3 AA C7 
              97 3F 3D 
              B3 68 0E         DCW              0x26F3,0xC3AD,0xC7AA,0x3F97,0xB
33D,0x0E68
 1582 00003E74 53 27 94 
              C3 8E C7 
              99 3F 63 
              B3 37 0E         DCW              0x2753,0xC394,0xC78E,0x3F99,0xB
363,0x0E37
 1583 00003E80 B3 27 7B 
              C3 72 C7 
              9C 3F 89 
              B3 06 0E         DCW              0x27B3,0xC37B,0xC772,0x3F9C,0xB
389,0x0E06
 1584 00003E8C 12 28 63 
              C3 56 C7 



ARM Macro Assembler    Page 119 


              9F 3F AF 
              B3 D5 0D         DCW              0x2812,0xC363,0xC756,0x3F9F,0xB
3AF,0x0DD5
 1585 00003E98 72 28 4B 
              C3 3B C7 
              A2 3F D5 
              B3 A4 0D         DCW              0x2872,0xC34B,0xC73B,0x3FA2,0xB
3D5,0x0DA4
 1586 00003EA4 D1 28 33 
              C3 1F C7 
              A4 3F FC 
              B3 72 0D         DCW              0x28D1,0xC333,0xC71F,0x3FA4,0xB
3FC,0x0D72
 1587 00003EB0 30 29 1C 
              C3 03 C7 
              A7 3F 22 
              B4 41 0D         DCW              0x2930,0xC31C,0xC703,0x3FA7,0xB
422,0x0D41
 1588 00003EBC 8F 29 05 
              C3 E8 C6 
              AA 3F 49 
              B4 10 0D         DCW              0x298F,0xC305,0xC6E8,0x3FAA,0xB
449,0x0D10
 1589 00003EC8 EE 29 EE 
              C2 CC C6 
              AC 3F 70 
              B4 DF 0C         DCW              0x29EE,0xC2EE,0xC6CC,0x3FAC,0xB
470,0x0CDF
 1590 00003ED4 4C 2A D8 
              C2 B1 C6 
              AF 3F 97 
              B4 AE 0C         DCW              0x2A4C,0xC2D8,0xC6B1,0x3FAF,0xB
497,0x0CAE
 1591 00003EE0 AA 2A C1 
              C2 95 C6 
              B1 3F BF 
              B4 7C 0C         DCW              0x2AAA,0xC2C1,0xC695,0x3FB1,0xB
4BF,0x0C7C
 1592 00003EEC 08 2B AC 
              C2 7A C6 
              B4 3F E6 
              B4 4B 0C         DCW              0x2B08,0xC2AC,0xC67A,0x3FB4,0xB
4E6,0x0C4B
 1593 00003EF8 66 2B 96 
              C2 5E C6 
              B6 3F 0E 
              B5 1A 0C         DCW              0x2B66,0xC296,0xC65E,0x3FB6,0xB
50E,0x0C1A
 1594 00003F04 C3 2B 81 
              C2 43 C6 
              B8 3F 36 
              B5 E8 0B         DCW              0x2BC3,0xC281,0xC643,0x3FB8,0xB
536,0x0BE8
 1595 00003F10 21 2C 6D 
              C2 27 C6 
              BB 3F 5E 
              B5 B7 0B         DCW              0x2C21,0xC26D,0xC627,0x3FBB,0xB
55E,0x0BB7
 1596 00003F1C 7E 2C 58 



ARM Macro Assembler    Page 120 


              C2 0C C6 
              BD 3F 87 
              B5 85 0B         DCW              0x2C7E,0xC258,0xC60C,0x3FBD,0xB
587,0x0B85
 1597 00003F28 DA 2C 44 
              C2 F1 C5 
              BF 3F AF 
              B5 54 0B         DCW              0x2CDA,0xC244,0xC5F1,0x3FBF,0xB
5AF,0x0B54
 1598 00003F34 37 2D 30 
              C2 D6 C5 
              C1 3F D8 
              B5 23 0B         DCW              0x2D37,0xC230,0xC5D6,0x3FC1,0xB
5D8,0x0B23
 1599 00003F40 93 2D 1D 
              C2 BA C5 
              C4 3F 01 
              B6 F1 0A         DCW              0x2D93,0xC21D,0xC5BA,0x3FC4,0xB
601,0x0AF1
 1600 00003F4C EF 2D 0A 
              C2 9F C5 
              C6 3F 2A 
              B6 C0 0A         DCW              0x2DEF,0xC20A,0xC59F,0x3FC6,0xB
62A,0x0AC0
 1601 00003F58 4B 2E F7 
              C1 84 C5 
              C8 3F 53 
              B6 8E 0A         DCW              0x2E4B,0xC1F7,0xC584,0x3FC8,0xB
653,0x0A8E
 1602 00003F64 A6 2E E5 
              C1 69 C5 
              CA 3F 7C 
              B6 5C 0A         DCW              0x2EA6,0xC1E5,0xC569,0x3FCA,0xB
67C,0x0A5C
 1603 00003F70 01 2F D3 
              C1 4E C5 
              CC 3F A6 
              B6 2B 0A         DCW              0x2F01,0xC1D3,0xC54E,0x3FCC,0xB
6A6,0x0A2B
 1604 00003F7C 5C 2F C1 
              C1 33 C5 
              CE 3F CF 
              B6 F9 09         DCW              0x2F5C,0xC1C1,0xC533,0x3FCE,0xB
6CF,0x09F9
 1605 00003F88 B7 2F B0 
              C1 18 C5 
              D0 3F F9 
              B6 C7 09         DCW              0x2FB7,0xC1B0,0xC518,0x3FD0,0xB
6F9,0x09C7
 1606 00003F94 12 30 9F 
              C1 FD C4 
              D2 3F 23 
              B7 96 09         DCW              0x3012,0xC19F,0xC4FD,0x3FD2,0xB
723,0x0996
 1607 00003FA0 6C 30 8E 
              C1 E2 C4 
              D4 3F 4E 
              B7 64 09         DCW              0x306C,0xC18E,0xC4E2,0x3FD4,0xB
74E,0x0964



ARM Macro Assembler    Page 121 


 1608 00003FAC C6 30 7E 
              C1 C7 C4 
              D5 3F 78 
              B7 32 09         DCW              0x30C6,0xC17E,0xC4C7,0x3FD5,0xB
778,0x0932
 1609 00003FB8 20 31 6E 
              C1 AC C4 
              D7 3F A3 
              B7 01 09         DCW              0x3120,0xC16E,0xC4AC,0x3FD7,0xB
7A3,0x0901
 1610 00003FC4 79 31 5E 
              C1 91 C4 
              D9 3F CE 
              B7 CF 08         DCW              0x3179,0xC15E,0xC491,0x3FD9,0xB
7CE,0x08CF
 1611 00003FD0 D2 31 4F 
              C1 77 C4 
              DB 3F F8 
              B7 9D 08         DCW              0x31D2,0xC14F,0xC477,0x3FDB,0xB
7F8,0x089D
 1612 00003FDC 2B 32 40 
              C1 5C C4 
              DC 3F 24 
              B8 6B 08         DCW              0x322B,0xC140,0xC45C,0x3FDC,0xB
824,0x086B
 1613 00003FE8 84 32 31 
              C1 41 C4 
              DE 3F 4F 
              B8 39 08         DCW              0x3284,0xC131,0xC441,0x3FDE,0xB
84F,0x0839
 1614 00003FF4 DC 32 23 
              C1 26 C4 
              E0 3F 7A 
              B8 07 08         DCW              0x32DC,0xC123,0xC426,0x3FE0,0xB
87A,0x0807
 1615 00004000 34 33 15 
              C1 0C C4 
              E1 3F A6 
              B8 D6 07         DCW              0x3334,0xC115,0xC40C,0x3FE1,0xB
8A6,0x07D6
 1616 0000400C 8C 33 07 
              C1 F1 C3 
              E3 3F D2 
              B8 A4 07         DCW              0x338C,0xC107,0xC3F1,0x3FE3,0xB
8D2,0x07A4
 1617 00004018 E3 33 FA 
              C0 D7 C3 
              E4 3F FE 
              B8 72 07         DCW              0x33E3,0xC0FA,0xC3D7,0x3FE4,0xB
8FE,0x0772
 1618 00004024 3B 34 ED 
              C0 BC C3 
              E6 3F 2A 
              B9 40 07         DCW              0x343B,0xC0ED,0xC3BC,0x3FE6,0xB
92A,0x0740
 1619 00004030 91 34 E0 
              C0 A2 C3 
              E7 3F 56 
              B9 0E 07         DCW              0x3491,0xC0E0,0xC3A2,0x3FE7,0xB



ARM Macro Assembler    Page 122 


956,0x070E
 1620 0000403C E8 34 D4 
              C0 87 C3 
              E8 3F 83 
              B9 DC 06         DCW              0x34E8,0xC0D4,0xC387,0x3FE8,0xB
983,0x06DC
 1621 00004048 3E 35 C8 
              C0 6D C3 
              EA 3F AF 
              B9 AA 06         DCW              0x353E,0xC0C8,0xC36D,0x3FEA,0xB
9AF,0x06AA
 1622 00004054 95 35 BD 
              C0 52 C3 
              EB 3F DC 
              B9 78 06         DCW              0x3595,0xC0BD,0xC352,0x3FEB,0xB
9DC,0x0678
 1623 00004060 EA 35 B1 
              C0 38 C3 
              EC 3F 09 
              BA 46 06         DCW              0x35EA,0xC0B1,0xC338,0x3FEC,0xB
A09,0x0646
 1624 0000406C 40 36 A6 
              C0 1E C3 
              ED 3F 37 
              BA 14 06         DCW              0x3640,0xC0A6,0xC31E,0x3FED,0xB
A37,0x0614
 1625 00004078 95 36 9C 
              C0 03 C3 
              EF 3F 64 
              BA E2 05         DCW              0x3695,0xC09C,0xC303,0x3FEF,0xB
A64,0x05E2
 1626 00004084 EA 36 92 
              C0 E9 C2 
              F0 3F 91 
              BA B0 05         DCW              0x36EA,0xC092,0xC2E9,0x3FF0,0xB
A91,0x05B0
 1627 00004090 3F 37 88 
              C0 CF C2 
              F1 3F BF 
              BA 7E 05         DCW              0x373F,0xC088,0xC2CF,0x3FF1,0xB
ABF,0x057E
 1628 0000409C 93 37 7E 
              C0 B5 C2 
              F2 3F ED 
              BA 4C 05         DCW              0x3793,0xC07E,0xC2B5,0x3FF2,0xB
AED,0x054C
 1629 000040A8 E7 37 75 
              C0 9B C2 
              F3 3F 1B 
              BB 1A 05         DCW              0x37E7,0xC075,0xC29B,0x3FF3,0xB
B1B,0x051A
 1630 000040B4 3B 38 6C 
              C0 81 C2 
              F4 3F 49 
              BB E7 04         DCW              0x383B,0xC06C,0xC281,0x3FF4,0xB
B49,0x04E7
 1631 000040C0 8E 38 64 
              C0 66 C2 
              F5 3F 77 



ARM Macro Assembler    Page 123 


              BB B5 04         DCW              0x388E,0xC064,0xC266,0x3FF5,0xB
B77,0x04B5
 1632 000040CC E1 38 5C 
              C0 4C C2 
              F6 3F A6 
              BB 83 04         DCW              0x38E1,0xC05C,0xC24C,0x3FF6,0xB
BA6,0x0483
 1633 000040D8 34 39 54 
              C0 32 C2 
              F7 3F D5 
              BB 51 04         DCW              0x3934,0xC054,0xC232,0x3FF7,0xB
BD5,0x0451
 1634 000040E4 86 39 4C 
              C0 19 C2 
              F7 3F 04 
              BC 1F 04         DCW              0x3986,0xC04C,0xC219,0x3FF7,0xB
C04,0x041F
 1635 000040F0 D9 39 45 
              C0 FF C1 
              F8 3F 33 
              BC ED 03         DCW              0x39D9,0xC045,0xC1FF,0x3FF8,0xB
C33,0x03ED
 1636 000040FC 2A 3A 3F 
              C0 E5 C1 
              F9 3F 62 
              BC BB 03         DCW              0x3A2A,0xC03F,0xC1E5,0x3FF9,0xB
C62,0x03BB
 1637 00004108 7C 3A 38 
              C0 CB C1 
              FA 3F 91 
              BC 88 03         DCW              0x3A7C,0xC038,0xC1CB,0x3FFA,0xB
C91,0x0388
 1638 00004114 CD 3A 32 
              C0 B1 C1 
              FA 3F C1 
              BC 56 03         DCW              0x3ACD,0xC032,0xC1B1,0x3FFA,0xB
CC1,0x0356
 1639 00004120 1E 3B 2C 
              C0 97 C1 
              FB 3F F0 
              BC 24 03         DCW              0x3B1E,0xC02C,0xC197,0x3FFB,0xB
CF0,0x0324
 1640 0000412C 6F 3B 27 
              C0 7E C1 
              FC 3F 20 
              BD F2 02         DCW              0x3B6F,0xC027,0xC17E,0x3FFC,0xB
D20,0x02F2
 1641 00004138 BF 3B 22 
              C0 64 C1 
              FC 3F 50 
              BD C0 02         DCW              0x3BBF,0xC022,0xC164,0x3FFC,0xB
D50,0x02C0
 1642 00004144 0F 3C 1D 
              C0 4A C1 
              FD 3F 80 
              BD 8D 02         DCW              0x3C0F,0xC01D,0xC14A,0x3FFD,0xB
D80,0x028D
 1643 00004150 5E 3C 19 
              C0 31 C1 



ARM Macro Assembler    Page 124 


              FD 3F B0 
              BD 5B 02         DCW              0x3C5E,0xC019,0xC131,0x3FFD,0xB
DB0,0x025B
 1644 0000415C AE 3C 15 
              C0 17 C1 
              FE 3F E1 
              BD 29 02         DCW              0x3CAE,0xC015,0xC117,0x3FFE,0xB
DE1,0x0229
 1645 00004168 FD 3C 11 
              C0 FE C0 
              FE 3F 11 
              BE F7 01         DCW              0x3CFD,0xC011,0xC0FE,0x3FFE,0xB
E11,0x01F7
 1646 00004174 4B 3D 0E 
              C0 E4 C0 
              FE 3F 42 
              BE C4 01         DCW              0x3D4B,0xC00E,0xC0E4,0x3FFE,0xB
E42,0x01C4
 1647 00004180 9A 3D 0B 
              C0 CB C0 
              FF 3F 73 
              BE 92 01         DCW              0x3D9A,0xC00B,0xC0CB,0x3FFF,0xB
E73,0x0192
 1648 0000418C E7 3D 09 
              C0 B1 C0 
              FF 3F A4 
              BE 60 01         DCW              0x3DE7,0xC009,0xC0B1,0x3FFF,0xB
EA4,0x0160
 1649 00004198 35 3E 06 
              C0 98 C0 
              FF 3F D6 
              BE 2E 01         DCW              0x3E35,0xC006,0xC098,0x3FFF,0xB
ED6,0x012E
 1650 000041A4 82 3E 04 
              C0 7E C0 
              00 40 07 
              BF FB 00         DCW              0x3E82,0xC004,0xC07E,0x4000,0xB
F07,0x00FB
 1651 000041B0 CF 3E 03 
              C0 65 C0 
              00 40 39 
              BF C9 00         DCW              0x3ECF,0xC003,0xC065,0x4000,0xB
F39,0x00C9
 1652 000041BC 1C 3F 02 
              C0 4C C0 
              00 40 6A 
              BF 97 00         DCW              0x3F1C,0xC002,0xC04C,0x4000,0xB
F6A,0x0097
 1653 000041C8 68 3F 01 
              C0 33 C0 
              00 40 9C 
              BF 65 00         DCW              0x3F68,0xC001,0xC033,0x4000,0xB
F9C,0x0065
 1654 000041D4 B4 3F 00 
              C0 19 C0 
              00 40 CE 
              BF 32 00         DCW              0x3FB4,0xC000,0xC019,0x4000,0xB
FCE,0x0032
 1655 000041E0         



ARM Macro Assembler    Page 125 


 1656 000041E0                 END
Command Line: --debug --xref --diag_suppress=9931 --cpu=Cortex-M3 --apcs=interw
ork --depend=..\obj\cr4_fft_4096_stm32.d -o..\obj\cr4_fft_4096_stm32.o -I"E:\
\DO-Y101\\DO-Y101 V1.0.1\USER\RTE" -IC:\Keil_v5\ARM\PACK\Keil
\STM32F1xx_DFP\2.2.0 -IC:\Keil_v5\ARM\CMSIS\Include --predefine="__UVISION_VERS
ION SETA 514" --predefine="STM32F10X_HD SETA 1" --list=.\cr4_fft_4096_stm32.lst
 ..\STM32F10x_DSP_Lib\src\cr4_fft_4096_stm32.s



ARM Macro Assembler    Page 1 Alphabetic symbol ordering
Relocatable symbols

.text 00000000

Symbol: .text
   Definitions
      At line 20 in file ..\STM32F10x_DSP_Lib\src\cr4_fft_4096_stm32.s
   Uses
      None
Comment: .text unused
TableFFT_V7 000001F0

Symbol: TableFFT_V7
   Definitions
      At line 285 in file ..\STM32F10x_DSP_Lib\src\cr4_fft_4096_stm32.s
   Uses
      At line 250 in file ..\STM32F10x_DSP_Lib\src\cr4_fft_4096_stm32.s
Comment: TableFFT_V7 used once
butterloop_v7 000000D0

Symbol: butterloop_v7
   Definitions
      At line 263 in file ..\STM32F10x_DSP_Lib\src\cr4_fft_4096_stm32.s
   Uses
      At line 266 in file ..\STM32F10x_DSP_Lib\src\cr4_fft_4096_stm32.s
Comment: butterloop_v7 used once
cr4_fft_4096_stm32 00000000

Symbol: cr4_fft_4096_stm32
   Definitions
      At line 219 in file ..\STM32F10x_DSP_Lib\src\cr4_fft_4096_stm32.s
   Uses
      At line 22 in file ..\STM32F10x_DSP_Lib\src\cr4_fft_4096_stm32.s
Comment: cr4_fft_4096_stm32 used once
grouploop_v7 000000CC

Symbol: grouploop_v7
   Definitions
      At line 260 in file ..\STM32F10x_DSP_Lib\src\cr4_fft_4096_stm32.s
   Uses
      At line 274 in file ..\STM32F10x_DSP_Lib\src\cr4_fft_4096_stm32.s
Comment: grouploop_v7 used once
passloop_v7 000000C0

Symbol: passloop_v7
   Definitions
      At line 254 in file ..\STM32F10x_DSP_Lib\src\cr4_fft_4096_stm32.s
   Uses
      At line 279 in file ..\STM32F10x_DSP_Lib\src\cr4_fft_4096_stm32.s
Comment: passloop_v7 used once
preloop_v7 0000000C

Symbol: preloop_v7
   Definitions
      At line 226 in file ..\STM32F10x_DSP_Lib\src\cr4_fft_4096_stm32.s
   Uses
      At line 232 in file ..\STM32F10x_DSP_Lib\src\cr4_fft_4096_stm32.s
Comment: preloop_v7 used once
7 symbols



ARM Macro Assembler    Page 1 Alphabetic symbol ordering
Absolute symbols

NPT 00001000

Symbol: NPT
   Definitions
      At line 46 in file ..\STM32F10x_DSP_Lib\src\cr4_fft_4096_stm32.s
   Uses
      At line 136 in macro ]@OPT
      at line 228 in file ..\STM32F10x_DSP_Lib\src\cr4_fft_4096_stm32.s
      At line 139 in macro ]@OPT
      at line 228 in file ..\STM32F10x_DSP_Lib\src\cr4_fft_4096_stm32.s
      At line 142 in macro ]@OPT
      at line 228 in file ..\STM32F10x_DSP_Lib\src\cr4_fft_4096_stm32.s
      At line 145 in macro ]@OPT
      at line 228 in file ..\STM32F10x_DSP_Lib\src\cr4_fft_4096_stm32.s

1 symbol



ARM Macro Assembler    Page 1 Alphabetic symbol ordering
External symbols

TableFFT 00000000

Symbol: TableFFT
   Definitions
      At line 23 in file ..\STM32F10x_DSP_Lib\src\cr4_fft_4096_stm32.s
   Uses
      None
Comment: TableFFT unused
1 symbol
360 symbols in table
